opt subtitle "HI-TECH Software Omniscient Code Generator (Lite mode) build 9453"

opt pagewidth 120

	opt lm

	processor	16F877A
clrc	macro
	bcf	3,0
	endm
clrz	macro
	bcf	3,2
	endm
setc	macro
	bsf	3,0
	endm
setz	macro
	bsf	3,2
	endm
skipc	macro
	btfss	3,0
	endm
skipz	macro
	btfss	3,2
	endm
skipnc	macro
	btfsc	3,0
	endm
skipnz	macro
	btfsc	3,2
	endm
indf	equ	0
indf0	equ	0
pc	equ	2
pcl	equ	2
status	equ	3
fsr	equ	4
fsr0	equ	4
c	equ	1
z	equ	0
pclath	equ	10
	FNROOT	_main
	global	_dat
psect	idataCOMMON,class=CODE,space=0,delta=2
global __pidataCOMMON
__pidataCOMMON:
	file	"D:\pic controller,PIC16F877A\serial\minc.c"
	line	4

;initializer for _dat
	retlw	057h
	retlw	06Fh
	retlw	072h
	retlw	06Bh
	retlw	069h
	retlw	06Eh
	retlw	067h
	retlw	02Eh
	retlw	02Eh
	retlw	02Eh
	retlw	0
	global	_a
	global	_PORTC
_PORTC	set	7
	global	_TXREG
_TXREG	set	25
	global	_CARRY
_CARRY	set	24
	global	_GIE
_GIE	set	95
	global	_SPEN
_SPEN	set	199
	global	_TXIF
_TXIF	set	100
	global	_SPBRG
_SPBRG	set	153
	global	_TRISC
_TRISC	set	135
	global	_BRGH
_BRGH	set	1218
	global	_SYNC
_SYNC	set	1220
	global	_TXEN
_TXEN	set	1221
	global	_EEADR
_EEADR	set	269
	global	_EEDATA
_EEDATA	set	268
	global	_EECON1
_EECON1	set	396
	global	_EECON2
_EECON2	set	397
	global	_RD
_RD	set	3168
	global	_WR
_WR	set	3169
	global	_WREN
_WREN	set	3170
	file	"function.as"
	line	#
psect cinit,class=CODE,delta=2
global start_initialization
start_initialization:

psect	bssCOMMON,class=COMMON,space=1
global __pbssCOMMON
__pbssCOMMON:
_a:
       ds      1

psect	dataCOMMON,class=COMMON,space=1
global __pdataCOMMON
__pdataCOMMON:
	file	"D:\pic controller,PIC16F877A\serial\minc.c"
_dat:
       ds      11

; Clear objects allocated to COMMON
psect cinit,class=CODE,delta=2
	clrf	((__pbssCOMMON)+0)&07Fh
global btemp
psect inittext,class=CODE,delta=2
global init_fetch,btemp
;	Called with low address in FSR and high address in W
init_fetch:
	movf btemp,w
	movwf pclath
	movf btemp+1,w
	movwf pc
global init_ram
;Called with:
;	high address of idata address in btemp 
;	low address of idata address in btemp+1 
;	low address of data in FSR
;	high address + 1 of data in btemp-1
init_ram:
	fcall init_fetch
	movwf indf,f
	incf fsr,f
	movf fsr,w
	xorwf btemp-1,w
	btfsc status,2
	retlw 0
	incf btemp+1,f
	btfsc status,2
	incf btemp,f
	goto init_ram
; Initialize objects allocated to COMMON
	global __pidataCOMMON
psect cinit,class=CODE,delta=2
	fcall	__pidataCOMMON+0		;fetch initializer
	movwf	__pdataCOMMON+0&07fh		
	fcall	__pidataCOMMON+1		;fetch initializer
	movwf	__pdataCOMMON+1&07fh		
	fcall	__pidataCOMMON+2		;fetch initializer
	movwf	__pdataCOMMON+2&07fh		
	fcall	__pidataCOMMON+3		;fetch initializer
	movwf	__pdataCOMMON+3&07fh		
	fcall	__pidataCOMMON+4		;fetch initializer
	movwf	__pdataCOMMON+4&07fh		
	fcall	__pidataCOMMON+5		;fetch initializer
	movwf	__pdataCOMMON+5&07fh		
	fcall	__pidataCOMMON+6		;fetch initializer
	movwf	__pdataCOMMON+6&07fh		
	fcall	__pidataCOMMON+7		;fetch initializer
	movwf	__pdataCOMMON+7&07fh		
	fcall	__pidataCOMMON+8		;fetch initializer
	movwf	__pdataCOMMON+8&07fh		
	fcall	__pidataCOMMON+9		;fetch initializer
	movwf	__pdataCOMMON+9&07fh		
	fcall	__pidataCOMMON+10		;fetch initializer
	movwf	__pdataCOMMON+10&07fh		
psect cinit,class=CODE,delta=2
global end_of_initialization

;End of C runtime variable initialization code

end_of_initialization:
clrf status
ljmp _main	;jump to C main() function
psect	cstackCOMMON,class=COMMON,space=1
global __pcstackCOMMON
__pcstackCOMMON:
	global	?_main
?_main:	; 0 bytes @ 0x0
	global	??_main
??_main:	; 0 bytes @ 0x0
	ds	2
;;Data sizes: Strings 0, constant 0, data 11, bss 1, persistent 0 stack 0
;;Auto spaces:   Size  Autos    Used
;; COMMON          14      2      14
;; BANK0           80      0       0
;; BANK1           80      0       0
;; BANK3           96      0       0
;; BANK2           96      0       0

;;
;; Pointer list with targets:



;;
;; Critical Paths under _main in COMMON
;;
;;   None.
;;
;; Critical Paths under _main in BANK0
;;
;;   None.
;;
;; Critical Paths under _main in BANK1
;;
;;   None.
;;
;; Critical Paths under _main in BANK3
;;
;;   None.
;;
;; Critical Paths under _main in BANK2
;;
;;   None.

;;
;;Main: autosize = 0, tempsize = 2, incstack = 0, save=0
;;

;;
;;Call Graph Tables:
;;
;; ---------------------------------------------------------------------------------
;; (Depth) Function   	        Calls       Base Space   Used Autos Params    Refs
;; ---------------------------------------------------------------------------------
;; (0) _main                                                 2     2      0       0
;;                                              0 COMMON     2     2      0
;; ---------------------------------------------------------------------------------
;; Estimated maximum stack depth 0
;; ---------------------------------------------------------------------------------

;; Call Graph Graphs:

;; _main (ROOT)
;;

;; Address spaces:

;;Name               Size   Autos  Total    Cost      Usage
;;BANK3               60      0       0       9        0.0%
;;BITBANK3            60      0       0       8        0.0%
;;SFR3                 0      0       0       4        0.0%
;;BITSFR3              0      0       0       4        0.0%
;;BANK2               60      0       0      11        0.0%
;;BITBANK2            60      0       0      10        0.0%
;;SFR2                 0      0       0       5        0.0%
;;BITSFR2              0      0       0       5        0.0%
;;SFR1                 0      0       0       2        0.0%
;;BITSFR1              0      0       0       2        0.0%
;;BANK1               50      0       0       7        0.0%
;;BITBANK1            50      0       0       6        0.0%
;;CODE                 0      0       0       0        0.0%
;;DATA                 0      0       E      12        0.0%
;;ABS                  0      0       E       3        0.0%
;;NULL                 0      0       0       0        0.0%
;;STACK                0      0       0       2        0.0%
;;BANK0               50      0       0       5        0.0%
;;BITBANK0            50      0       0       4        0.0%
;;SFR0                 0      0       0       1        0.0%
;;BITSFR0              0      0       0       1        0.0%
;;COMMON               E      2       E       1      100.0%
;;BITCOMMON            E      0       0       0        0.0%
;;EEDATA             100      0       0       0        0.0%

	global	_main
psect	maintext,global,class=CODE,delta=2
global __pmaintext
__pmaintext:

;; *************** function _main *****************
;; Defined at:
;;		line 7 in file "D:\pic controller,PIC16F877A\serial\minc.c"
;; Parameters:    Size  Location     Type
;;		None
;; Auto vars:     Size  Location     Type
;;		None
;; Return value:  Size  Location     Type
;;		None               void
;; Registers used:
;;		wreg, fsr0l, fsr0h, status,2, status,0
;; Tracked objects:
;;		On entry : 17F/0
;;		On exit  : 0/0
;;		Unchanged: 0/0
;; Data sizes:     COMMON   BANK0   BANK1   BANK3   BANK2
;;      Params:         0       0       0       0       0
;;      Locals:         0       0       0       0       0
;;      Temps:          2       0       0       0       0
;;      Totals:         2       0       0       0       0
;;Total ram usage:        2 bytes
;; This function calls:
;;		Nothing
;; This function is called by:
;;		Startup code after reset
;; This function uses a non-reentrant model
;;
psect	maintext
	file	"D:\pic controller,PIC16F877A\serial\minc.c"
	line	7
	global	__size_of_main
	__size_of_main	equ	__end_of_main-_main
	
_main:	
	opt	stack 8
; Regs used in _main: [wreg-fsr0h+status,2+status,0]
	line	8
	
l2604:	
;minc.c: 8: TRISC = 0xbf;
	movlw	(0BFh)
	bsf	status, 5	;RP0=1, select bank1
	bcf	status, 6	;RP1=0, select bank1
	movwf	(135)^080h	;volatile
	line	9
;minc.c: 9: PORTC= 0xbf;
	movlw	(0BFh)
	bcf	status, 5	;RP0=0, select bank0
	bcf	status, 6	;RP1=0, select bank0
	movwf	(7)	;volatile
	line	10
	
l2606:	
;minc.c: 10: SYNC=0;
	bsf	status, 5	;RP0=1, select bank1
	bcf	status, 6	;RP1=0, select bank1
	bcf	(1220/8)^080h,(1220)&7
	line	11
	
l2608:	
;minc.c: 11: SPEN=1;
	bcf	status, 5	;RP0=0, select bank0
	bcf	status, 6	;RP1=0, select bank0
	bsf	(199/8),(199)&7
	line	12
	
l2610:	
;minc.c: 12: TXEN=1;
	bsf	status, 5	;RP0=1, select bank1
	bcf	status, 6	;RP1=0, select bank1
	bsf	(1221/8)^080h,(1221)&7
	line	13
	
l2612:	
;minc.c: 13: BRGH=1;
	bsf	(1218/8)^080h,(1218)&7
	line	14
;minc.c: 14: SPBRG=25;
	movlw	(019h)
	movwf	(153)^080h	;volatile
	goto	l692
	line	16
;minc.c: 16: while(1)
	
l691:	
	line	18
;minc.c: 17: {
;minc.c: 18: while(TXIF==0);TXIF=0;
	goto	l692
	
l693:	
	
l692:	
	bcf	status, 5	;RP0=0, select bank0
	bcf	status, 6	;RP1=0, select bank0
	btfss	(100/8),(100)&7
	goto	u2221
	goto	u2220
u2221:
	goto	l692
u2220:
	
l694:	
	bcf	(100/8),(100)&7
	line	19
	
l2614:	
;minc.c: 19: TXREG=dat[a];
	movf	(_a),w
	addlw	_dat&0ffh
	movwf	fsr0
	movf	indf,w
	movwf	(25)	;volatile
	line	20
;minc.c: 20: if(dat[a]!='\0')
	movf	(_a),w
	addlw	_dat&0ffh
	movwf	fsr0
	movf	indf
	skipnz
	goto	u2231
	goto	u2230
u2231:
	goto	l695
u2230:
	line	21
	
l2616:	
;minc.c: 21: { a++;}
	movlw	(01h)
	movwf	(??_main+0)+0
	movf	(??_main+0)+0,w
	addwf	(_a),f
	goto	l2618
	line	22
	
l695:	
	line	23
;minc.c: 22: else
;minc.c: 23: {a=0;
	clrf	(_a)
	goto	l2618
	line	24
	
l696:	
	line	25
	
l2618:	
;minc.c: 24: }
;minc.c: 25: _delay(10000);
	opt asmopt_off
movlw	13
movwf	((??_main+0)+0+1),f
	movlw	251
movwf	((??_main+0)+0),f
u2247:
	decfsz	((??_main+0)+0),f
	goto	u2247
	decfsz	((??_main+0)+0+1),f
	goto	u2247
	nop2
opt asmopt_on

	goto	l692
	line	26
	
l697:	
	line	16
	goto	l692
	
l698:	
	line	27
	
l699:	
	global	start
	ljmp	start
	opt stack 0
GLOBAL	__end_of_main
	__end_of_main:
;; =============== function _main ends ============

	signat	_main,88
psect	maintext
	global	btemp
	btemp set 07Eh

	DABS	1,126,2	;btemp
	global	wtemp0
	wtemp0 set btemp
	end
