

HI-TECH Software PIC LITE Macro Assembler V9.82 build 9453 
                                                                                               Thu Aug 15 14:26:41 2024

HI-TECH Software Omniscient Code Generator (Lite mode) build 9453
     1  0000                     opt subtitle "HI-TECH Software Omniscient Code Generator (Lite mode) build 9453"
     2                           
     3                           opt pagewidth 120
     4                           
     5                           	opt lm
     6                           
     7                           	processor	16F877A
     8                           clrc	macro
     9                           	bcf	3,0
    10  0000                     	endm
    11                           clrz	macro
    12                           	bcf	3,2
    13  0000                     	endm
    14                           setc	macro
    15                           	bsf	3,0
    16  0000                     	endm
    17                           setz	macro
    18                           	bsf	3,2
    19  0000                     	endm
    20                           skipc	macro
    21                           	btfss	3,0
    22  0000                     	endm
    23                           skipz	macro
    24                           	btfss	3,2
    25  0000                     	endm
    26                           skipnc	macro
    27                           	btfsc	3,0
    28  0000                     	endm
    29                           skipnz	macro
    30                           	btfsc	3,2
    31  0000                     	endm
    32  0000                     indf	equ	0
    33  0000                     indf0	equ	0
    34  0002                     pc	equ	2
    35  0002                     pcl	equ	2
    36  0003                     status	equ	3
    37  0004                     fsr	equ	4
    38  0004                     fsr0	equ	4
    39  0001                     c	equ	1
    40  0000                     z	equ	0
    41  000A                     pclath	equ	10
    42                           # 6 "E:\pic program\Password Based Circuit Breaker\main.c"
    43                           	psect config,class=CONFIG,delta=2 ;#
    44                           # 6 "E:\pic program\Password Based Circuit Breaker\main.c"
    45  2007  FF32               	dw 0xFFFE & 0xFFFB & 0xFFF7 & 0xFFBF & 0xFF7F & 0xFFFF & 0xFFFF & 0xFFFF ;#
    46                           	FNCALL	_main,_eeprom_read
    47                           	FNCALL	_main,_atoi
    48                           	FNCALL	_main,_memset
    49                           	FNCALL	_main,_LCD_Initialize
    50                           	FNCALL	_main,_Keypad_Initialize
    51                           	FNCALL	_main,_LCD_Disp
    52                           	FNCALL	_main,_LCD_Command
    53                           	FNCALL	_main,_FetchKey
    54                           	FNCALL	_main,_ChangePassWord
    55                           	FNCALL	_main,_LCD_Write
    56                           	FNCALL	_main,_isdigit
    57                           	FNCALL	_ChangePassWord,_LCD_Command
    58                           	FNCALL	_ChangePassWord,_memset
    59                           	FNCALL	_ChangePassWord,_LCD_Disp
    60                           	FNCALL	_ChangePassWord,_FetchKey
    61                           	FNCALL	_ChangePassWord,_isdigit
    62                           	FNCALL	_ChangePassWord,_LCD_Write
    63                           	FNCALL	_ChangePassWord,_atoi
    64                           	FNCALL	_ChangePassWord,_eeprom_write
    65                           	FNCALL	_LCD_Disp,_LCD_Write
    66                           	FNCALL	_LCD_Initialize,_LCD_Command
    67                           	FNCALL	_LCD_Write,_LCD_Command
    68                           	FNCALL	_LCD_Write,_LCD_Allort
    69                           	FNCALL	_atoi,___wmul
    70                           	FNCALL	_atoi,_isdigit
    71                           	FNCALL	_LCD_Command,_LCD_Allort
    72                           	FNROOT	_main
    73                           	global	_DetectedPassWord
    74                           	global	_LastDetectedKey
    75                           	global	_LastPassWord
    76                           	global	_LocalCount
    77                           	global	_Position
    78                           	global	_LocalArray
    79                           	global	_KeyDebounceTime
    80                           	global	_PORTB
    81                           psect	text417,local,class=CODE,delta=2
    82                           global __ptext417
    83  0000                     __ptext417:
    84  0006                     _PORTB	set	6
    85                           	global	_PORTD
    86  0008                     _PORTD	set	8
    87                           	global	_CARRY
    88  0018                     _CARRY	set	24
    89                           	global	_Col1
    90  0038                     _Col1	set	56
    91                           	global	_Col2
    92  0039                     _Col2	set	57
    93                           	global	_Col3
    94  003A                     _Col3	set	58
    95                           	global	_Col4
    96  003B                     _Col4	set	59
    97                           	global	_GIE
    98  005F                     _GIE	set	95
    99                           	global	_Row1
   100  0028                     _Row1	set	40
   101                           	global	_Row2
   102  0029                     _Row2	set	41
   103                           	global	_Row3
   104  002A                     _Row3	set	42
   105                           	global	_Row4
   106  002B                     _Row4	set	43
   107                           	global	_ADCON1
   108  009F                     _ADCON1	set	159
   109                           	global	_CMCON
   110  009C                     _CMCON	set	156
   111                           	global	_TRISA
   112  0085                     _TRISA	set	133
   113                           	global	_TRISB
   114  0086                     _TRISB	set	134
   115                           	global	_TRISC
   116  0087                     _TRISC	set	135
   117                           	global	_TRISD
   118  0088                     _TRISD	set	136
   119                           	global	_EEADR
   120  010D                     _EEADR	set	269
   121                           	global	_EEDATA
   122  010C                     _EEDATA	set	268
   123                           	global	_EECON1
   124  018C                     _EECON1	set	396
   125                           	global	_EECON2
   126  018D                     _EECON2	set	397
   127                           	global	_RD
   128  0C60                     _RD	set	3168
   129                           	global	_WR
   130  0C61                     _WR	set	3169
   131                           	global	_WREN
   132  0C62                     _WREN	set	3170
   133                           psect	strings,class=STRING,delta=2
   134                           global __pstrings
   135  0003                     __pstrings:
   136                           ;	global	stringdir,stringtab,__stringbase
   137  0003                     stringtab:
   138                           ;	String table - string pointers are 1 byte each
   139  0003  1BFF               	btfsc	(btemp+1),7
   140  0004  280D               	ljmp	stringcode
   141  0005  1383               	bcf	status,7
   142  0006  187F               	btfsc	(btemp+1),0
   143  0007  1783               	bsf	status,7
   144  0008  0800               	movf	indf,w
   145  0009  0A84               	incf fsr
   146  000A  1903               skipnz
   147  000B  0AFF               incf btemp+1
   148  000C  0008               	return
   149  000D                     stringcode:stringdir:
      + 000D                     stringdir:	
   150  000D  3000               movlw high(stringdir)
   151  000E  008A               movwf pclath
   152  000F  0804               movf fsr,w
   153  0010  0A84               incf fsr
   154  0011  0782               	addwf pc
   155  0012                     __stringbase:
   156  0012  3400               	retlw	0
   157                           psect	strings
   158                           	
   159  0013                     STR_7:	
   160  0013  3420               	retlw	32	;' '
   161  0014  3420               	retlw	32	;' '
   162  0015  3420               	retlw	32	;' '
   163  0016  3420               	retlw	32	;' '
   164  0017  3420               	retlw	32	;' '
   165  0018  3420               	retlw	32	;' '
   166  0019  3420               	retlw	32	;' '
   167  001A  3420               	retlw	32	;' '
   168  001B  3420               	retlw	32	;' '
   169  001C  3420               	retlw	32	;' '
   170  001D  3420               	retlw	32	;' '
   171  001E  3420               	retlw	32	;' '
   172  001F  3420               	retlw	32	;' '
   173  0020  3420               	retlw	32	;' '
   174  0021  3420               	retlw	32	;' '
   175  0022  3420               	retlw	32	;' '
   176  0023  3400               	retlw	0
   177                           psect	strings
   178                           	
   179  0024                     STR_4:	
   180  0024  3420               	retlw	32	;' '
   181  0025  3420               	retlw	32	;' '
   182  0026  3420               	retlw	32	;' '
   183  0027  3420               	retlw	32	;' '
   184  0028  3420               	retlw	32	;' '
   185  0029  3453               	retlw	83	;'S'
   186  002A  3459               	retlw	89	;'Y'
   187  002B  3453               	retlw	83	;'S'
   188  002C  3454               	retlw	84	;'T'
   189  002D  3445               	retlw	69	;'E'
   190  002E  344D               	retlw	77	;'M'
   191  002F  3420               	retlw	32	;' '
   192  0030  3420               	retlw	32	;' '
   193  0031  3420               	retlw	32	;' '
   194  0032  3420               	retlw	32	;' '
   195  0033  3420               	retlw	32	;' '
   196  0034  3400               	retlw	0
   197                           psect	strings
   198                           	
   199  0035                     STR_10:	
   200  0035  3450               	retlw	80	;'P'
   201  0036  3441               	retlw	65	;'A'
   202  0037  3453               	retlw	83	;'S'
   203  0038  3453               	retlw	83	;'S'
   204  0039  3457               	retlw	87	;'W'
   205  003A  344F               	retlw	79	;'O'
   206  003B  3452               	retlw	82	;'R'
   207  003C  3444               	retlw	68	;'D'
   208  003D  3420               	retlw	32	;' '
   209  003E  344E               	retlw	78	;'N'
   210  003F  3454               	retlw	84	;'T'
   211  0040  3420               	retlw	32	;' '
   212  0041  344D               	retlw	77	;'M'
   213  0042  3441               	retlw	65	;'A'
   214  0043  3454               	retlw	84	;'T'
   215  0044  3443               	retlw	67	;'C'
   216  0045  3400               	retlw	0
   217                           psect	strings
   218                           	
   219  0046                     STR_8:	
   220  0046  3450               	retlw	80	;'P'
   221  0047  3441               	retlw	65	;'A'
   222  0048  3453               	retlw	83	;'S'
   223  0049  3453               	retlw	83	;'S'
   224  004A  3457               	retlw	87	;'W'
   225  004B  344F               	retlw	79	;'O'
   226  004C  3452               	retlw	82	;'R'
   227  004D  3444               	retlw	68	;'D'
   228  004E  3420               	retlw	32	;' '
   229  004F  344D               	retlw	77	;'M'
   230  0050  3441               	retlw	65	;'A'
   231  0051  3454               	retlw	84	;'T'
   232  0052  3443               	retlw	67	;'C'
   233  0053  3448               	retlw	72	;'H'
   234  0054  3445               	retlw	69	;'E'
   235  0055  3444               	retlw	68	;'D'
   236  0056  3400               	retlw	0
   237                           psect	strings
   238                           	
   239  0057                     STR_12:	
   240  0057  3445               	retlw	69	;'E'
   241  0058  344E               	retlw	78	;'N'
   242  0059  3454               	retlw	84	;'T'
   243  005A  3445               	retlw	69	;'E'
   244  005B  3452               	retlw	82	;'R'
   245  005C  3420               	retlw	32	;' '
   246  005D  344F               	retlw	79	;'O'
   247  005E  344C               	retlw	76	;'L'
   248  005F  3444               	retlw	68	;'D'
   249  0060  3420               	retlw	32	;' '
   250  0061  3450               	retlw	80	;'P'
   251  0062  3441               	retlw	65	;'A'
   252  0063  3453               	retlw	83	;'S'
   253  0064  3457               	retlw	87	;'W'
   254  0065  3452               	retlw	82	;'R'
   255  0066  3444               	retlw	68	;'D'
   256  0067  3400               	retlw	0
   257                           psect	strings
   258                           	
   259  0068                     STR_13:	
   260  0068  3445               	retlw	69	;'E'
   261  0069  344E               	retlw	78	;'N'
   262  006A  3454               	retlw	84	;'T'
   263  006B  3445               	retlw	69	;'E'
   264  006C  3452               	retlw	82	;'R'
   265  006D  3420               	retlw	32	;' '
   266  006E  344E               	retlw	78	;'N'
   267  006F  3445               	retlw	69	;'E'
   268  0070  3457               	retlw	87	;'W'
   269  0071  3420               	retlw	32	;' '
   270  0072  3450               	retlw	80	;'P'
   271  0073  3441               	retlw	65	;'A'
   272  0074  3453               	retlw	83	;'S'
   273  0075  3457               	retlw	87	;'W'
   274  0076  3452               	retlw	82	;'R'
   275  0077  3444               	retlw	68	;'D'
   276  0078  3400               	retlw	0
   277                           psect	strings
   278                           	
   279  0079                     STR_3:	
   280  0079  3450               	retlw	80	;'P'
   281  007A  3441               	retlw	65	;'A'
   282  007B  3453               	retlw	83	;'S'
   283  007C  3457               	retlw	87	;'W'
   284  007D  3452               	retlw	82	;'R'
   285  007E  3444               	retlw	68	;'D'
   286  007F  3420               	retlw	32	;' '
   287  0080  3442               	retlw	66	;'B'
   288  0081  3441               	retlw	65	;'A'
   289  0082  3453               	retlw	83	;'S'
   290  0083  3445               	retlw	69	;'E'
   291  0084  3420               	retlw	32	;' '
   292  0085  3450               	retlw	80	;'P'
   293  0086  344F               	retlw	79	;'O'
   294  0087  3457               	retlw	87	;'W'
   295  0088  3445               	retlw	69	;'E'
   296  0089  3400               	retlw	0
   297                           psect	strings
   298                           	
   299  008A                     STR_1:	
   300  008A  3454               	retlw	84	;'T'
   301  008B  3449               	retlw	73	;'I'
   302  008C  344D               	retlw	77	;'M'
   303  008D  3445               	retlw	69	;'E'
   304  008E  343A               	retlw	58	;':'
   305  008F  3420               	retlw	32	;' '
   306  0090  3420               	retlw	32	;' '
   307  0091  342D               	retlw	45	;'-'
   308  0092  3420               	retlw	32	;' '
   309  0093  3420               	retlw	32	;' '
   310  0094  342D               	retlw	45	;'-'
   311  0095  3420               	retlw	32	;' '
   312  0096  3420               	retlw	32	;' '
   313  0097  3420               	retlw	32	;' '
   314  0098  3420               	retlw	32	;' '
   315  0099  3420               	retlw	32	;' '
   316  009A  3400               	retlw	0
   317                           psect	strings
   318                           	
   319  009B                     STR_2:	
   320  009B  3444               	retlw	68	;'D'
   321  009C  3441               	retlw	65	;'A'
   322  009D  3454               	retlw	84	;'T'
   323  009E  3445               	retlw	69	;'E'
   324  009F  343A               	retlw	58	;':'
   325  00A0  3420               	retlw	32	;' '
   326  00A1  3420               	retlw	32	;' '
   327  00A2  342F               	retlw	47	;'/'
   328  00A3  3420               	retlw	32	;' '
   329  00A4  3420               	retlw	32	;' '
   330  00A5  342F               	retlw	47	;'/'
   331  00A6  3420               	retlw	32	;' '
   332  00A7  3420               	retlw	32	;' '
   333  00A8  3420               	retlw	32	;' '
   334  00A9  3420               	retlw	32	;' '
   335  00AA  3420               	retlw	32	;' '
   336  00AB  3400               	retlw	0
   337                           psect	strings
   338                           	
   339  00AC                     STR_6:	
   340  00AC  3445               	retlw	69	;'E'
   341  00AD  344E               	retlw	78	;'N'
   342  00AE  3454               	retlw	84	;'T'
   343  00AF  3445               	retlw	69	;'E'
   344  00B0  3452               	retlw	82	;'R'
   345  00B1  3420               	retlw	32	;' '
   346  00B2  3450               	retlw	80	;'P'
   347  00B3  3441               	retlw	65	;'A'
   348  00B4  3453               	retlw	83	;'S'
   349  00B5  3453               	retlw	83	;'S'
   350  00B6  3457               	retlw	87	;'W'
   351  00B7  344F               	retlw	79	;'O'
   352  00B8  3452               	retlw	82	;'R'
   353  00B9  3444               	retlw	68	;'D'
   354  00BA  3420               	retlw	32	;' '
   355  00BB  3400               	retlw	0
   356                           psect	strings
   357                           	
   358  00BC                     STR_5:	
   359  00BC  3445               	retlw	69	;'E'
   360  00BD  344E               	retlw	78	;'N'
   361  00BE  3454               	retlw	84	;'T'
   362  00BF  3445               	retlw	69	;'E'
   363  00C0  3452               	retlw	82	;'R'
   364  00C1  3420               	retlw	32	;' '
   365  00C2  3450               	retlw	80	;'P'
   366  00C3  3441               	retlw	65	;'A'
   367  00C4  3453               	retlw	83	;'S'
   368  00C5  3453               	retlw	83	;'S'
   369  00C6  3457               	retlw	87	;'W'
   370  00C7  344F               	retlw	79	;'O'
   371  00C8  3452               	retlw	82	;'R'
   372  00C9  3444               	retlw	68	;'D'
   373  00CA  3400               	retlw	0
   374                           psect	strings
   375  0013                     STR_9	equ	STR_7+0
   376  0013                     STR_11	equ	STR_7+0
   377  0013                     STR_14	equ	STR_7+0
   378  0013                     STR_15	equ	STR_7+0
   379                           	file	"Project.as"
   380                           	line	#
   381                           psect cinit,class=CODE,delta=2
   382                           global start_initialization
   383  0D9C                     start_initialization:
   384                           
   385                           psect	bssBANK0,class=BANK0,space=1
   386                           global __pbssBANK0
   387  0034                     __pbssBANK0:
   388  0034                     _DetectedPassWord:
   389  0034                            ds      2
   390                           
   391  0036                     _LastDetectedKey:
   392  0036                            ds      2
   393                           
   394  0038                     _LastPassWord:
   395  0038                            ds      2
   396                           
   397  003A                     _LocalCount:
   398  003A                            ds      1
   399                           
   400  003B                     _Position:
   401  003B                            ds      1
   402                           
   403  003C                     _LocalArray:
   404  003C                            ds      5
   405                           
   406  0041                     _KeyDebounceTime:
   407  0041                            ds      2
   408                           
   409                           ; Clear objects allocated to BANK0
   410                           psect cinit,class=CODE,delta=2
   411  0D9C  01B4               	clrf	((__pbssBANK0)+0)&07Fh
   412  0D9D  01B5               	clrf	((__pbssBANK0)+1)&07Fh
   413  0D9E  01B6               	clrf	((__pbssBANK0)+2)&07Fh
   414  0D9F  01B7               	clrf	((__pbssBANK0)+3)&07Fh
   415  0DA0  01B8               	clrf	((__pbssBANK0)+4)&07Fh
   416  0DA1  01B9               	clrf	((__pbssBANK0)+5)&07Fh
   417  0DA2  01BA               	clrf	((__pbssBANK0)+6)&07Fh
   418  0DA3  01BB               	clrf	((__pbssBANK0)+7)&07Fh
   419  0DA4  01BC               	clrf	((__pbssBANK0)+8)&07Fh
   420  0DA5  01BD               	clrf	((__pbssBANK0)+9)&07Fh
   421  0DA6  01BE               	clrf	((__pbssBANK0)+10)&07Fh
   422  0DA7  01BF               	clrf	((__pbssBANK0)+11)&07Fh
   423  0DA8  01C0               	clrf	((__pbssBANK0)+12)&07Fh
   424  0DA9  01C1               	clrf	((__pbssBANK0)+13)&07Fh
   425  0DAA  01C2               	clrf	((__pbssBANK0)+14)&07Fh
   426                           psect cinit,class=CODE,delta=2
   427                           global end_of_initialization
   428                           
   429                           ;End of C runtime variable initialization code
   430                           
   431  0DAB                     end_of_initialization:
   432  0DAB  0183               clrf status
   433  0DAC  120A  118A  2AB5   ljmp _main	;jump to C main() function
   434                           psect	cstackCOMMON,class=COMMON,space=1
   435                           global __pcstackCOMMON
   436  0070                     __pcstackCOMMON:
   437                           	global	?_isdigit
   438  0070                     ?_isdigit:	; 1 bit 
   439                           	global	??_isdigit
   440  0070                     ??_isdigit:	; 0 bytes @ 0x0
   441                           	global	?_LCD_Command
   442  0070                     ?_LCD_Command:	; 0 bytes @ 0x0
   443                           	global	?_LCD_Allort
   444  0070                     ?_LCD_Allort:	; 0 bytes @ 0x0
   445                           	global	??_LCD_Allort
   446  0070                     ??_LCD_Allort:	; 0 bytes @ 0x0
   447                           	global	??_eeprom_read
   448  0070                     ??_eeprom_read:	; 0 bytes @ 0x0
   449                           	global	?_ChangePassWord
   450  0070                     ?_ChangePassWord:	; 0 bytes @ 0x0
   451                           	global	?_Keypad_Initialize
   452  0070                     ?_Keypad_Initialize:	; 0 bytes @ 0x0
   453                           	global	??_Keypad_Initialize
   454  0070                     ??_Keypad_Initialize:	; 0 bytes @ 0x0
   455                           	global	??_FetchKey
   456  0070                     ??_FetchKey:	; 0 bytes @ 0x0
   457                           	global	?_LCD_Initialize
   458  0070                     ?_LCD_Initialize:	; 0 bytes @ 0x0
   459                           	global	?_main
   460  0070                     ?_main:	; 0 bytes @ 0x0
   461                           	global	?_memset
   462  0070                     ?_memset:	; 1 bytes @ 0x0
   463                           	global	?_eeprom_read
   464  0070                     ?_eeprom_read:	; 1 bytes @ 0x0
   465                           	global	?_eeprom_write
   466  0070                     ?_eeprom_write:	; 1 bytes @ 0x0
   467                           	global	?_FetchKey
   468  0070                     ?_FetchKey:	; 1 bytes @ 0x0
   469                           	global	?___wmul
   470  0070                     ?___wmul:	; 2 bytes @ 0x0
   471                           	global	eeprom_write@value
   472  0070                     eeprom_write@value:	; 1 bytes @ 0x0
   473                           	global	_isdigit$4926
   474  0070                     _isdigit$4926:	; 1 bytes @ 0x0
   475                           	global	memset@c
   476  0070                     memset@c:	; 2 bytes @ 0x0
   477                           	global	___wmul@multiplier
   478  0070                     ___wmul@multiplier:	; 2 bytes @ 0x0
   479  0070                     	ds	1
   480                           	global	??_eeprom_write
   481  0071                     ??_eeprom_write:	; 0 bytes @ 0x1
   482                           	global	LCD_Allort@Data
   483  0071                     LCD_Allort@Data:	; 1 bytes @ 0x1
   484                           	global	eeprom_read@addr
   485  0071                     eeprom_read@addr:	; 1 bytes @ 0x1
   486                           	global	isdigit@c
   487  0071                     isdigit@c:	; 1 bytes @ 0x1
   488  0071                     	ds	1
   489                           	global	??_LCD_Command
   490  0072                     ??_LCD_Command:	; 0 bytes @ 0x2
   491                           	global	eeprom_write@addr
   492  0072                     eeprom_write@addr:	; 1 bytes @ 0x2
   493                           	global	FetchKey@ButtonPressedTime
   494  0072                     FetchKey@ButtonPressedTime:	; 2 bytes @ 0x2
   495                           	global	memset@n
   496  0072                     memset@n:	; 2 bytes @ 0x2
   497                           	global	___wmul@multiplicand
   498  0072                     ___wmul@multiplicand:	; 2 bytes @ 0x2
   499  0072                     	ds	1
   500                           	global	LCD_Command@CommandData
   501  0073                     LCD_Command@CommandData:	; 1 bytes @ 0x3
   502  0073                     	ds	1
   503                           	global	?_LCD_Write
   504  0074                     ?_LCD_Write:	; 0 bytes @ 0x4
   505                           	global	??_memset
   506  0074                     ??_memset:	; 0 bytes @ 0x4
   507                           	global	??_LCD_Initialize
   508  0074                     ??_LCD_Initialize:	; 0 bytes @ 0x4
   509                           	global	??___wmul
   510  0074                     ??___wmul:	; 0 bytes @ 0x4
   511                           	global	FetchKey@Var1
   512  0074                     FetchKey@Var1:	; 1 bytes @ 0x4
   513                           	global	LCD_Write@DisplayData
   514  0074                     LCD_Write@DisplayData:	; 1 bytes @ 0x4
   515                           	global	___wmul@product
   516  0074                     ___wmul@product:	; 2 bytes @ 0x4
   517  0074                     	ds	1
   518                           	global	??_LCD_Write
   519  0075                     ??_LCD_Write:	; 0 bytes @ 0x5
   520                           	global	memset@p1
   521  0075                     memset@p1:	; 1 bytes @ 0x5
   522  0075                     	ds	1
   523                           	global	?_atoi
   524  0076                     ?_atoi:	; 2 bytes @ 0x6
   525                           	global	LCD_Write@CommandData
   526  0076                     LCD_Write@CommandData:	; 1 bytes @ 0x6
   527                           	global	memset@p
   528  0076                     memset@p:	; 1 bytes @ 0x6
   529  0076                     	ds	1
   530                           	global	?_LCD_Disp
   531  0077                     ?_LCD_Disp:	; 0 bytes @ 0x7
   532                           	global	LCD_Disp@DisplayData
   533  0077                     LCD_Disp@DisplayData:	; 2 bytes @ 0x7
   534  0077                     	ds	1
   535                           	global	??_atoi
   536  0078                     ??_atoi:	; 0 bytes @ 0x8
   537  0078                     	ds	1
   538                           	global	??_LCD_Disp
   539  0079                     ??_LCD_Disp:	; 0 bytes @ 0x9
   540  0079                     	ds	1
   541                           	global	LCD_Disp@DisplayAddress
   542  007A                     LCD_Disp@DisplayAddress:	; 1 bytes @ 0xA
   543                           	global	atoi@sign
   544  007A                     atoi@sign:	; 1 bytes @ 0xA
   545  007A                     	ds	1
   546                           	global	atoi@a
   547  007B                     atoi@a:	; 2 bytes @ 0xB
   548  007B                     	ds	2
   549                           	global	atoi@s
   550  007D                     atoi@s:	; 1 bytes @ 0xD
   551  007D                     	ds	1
   552                           psect	cstackBANK0,class=BANK0,space=1
   553                           global __pcstackBANK0
   554  0020                     __pcstackBANK0:
   555                           	global	??_ChangePassWord
   556  0020                     ??_ChangePassWord:	; 0 bytes @ 0x0
   557  0020                     	ds	2
   558                           	global	ChangePassWord@k
   559  0022                     ChangePassWord@k:	; 1 bytes @ 0x2
   560  0022                     	ds	1
   561                           	global	??_main
   562  0023                     ??_main:	; 0 bytes @ 0x3
   563  0023                     	ds	2
   564                           	global	main@RequireDelay
   565  0025                     main@RequireDelay:	; 2 bytes @ 0x5
   566  0025                     	ds	2
   567                           	global	main@RequireDelay_3936
   568  0027                     main@RequireDelay_3936:	; 2 bytes @ 0x7
   569  0027                     	ds	2
   570                           	global	main@RequireDelay_3940
   571  0029                     main@RequireDelay_3940:	; 2 bytes @ 0x9
   572  0029                     	ds	2
   573                           	global	main@RequireDelay_3942
   574  002B                     main@RequireDelay_3942:	; 2 bytes @ 0xB
   575  002B                     	ds	2
   576                           	global	_main$3926
   577  002D                     _main$3926:	; 2 bytes @ 0xD
   578  002D                     	ds	2
   579                           	global	main@RoutineDelay
   580  002F                     main@RoutineDelay:	; 1 bytes @ 0xF
   581  002F                     	ds	1
   582                           	global	main@RoutineDelay_3935
   583  0030                     main@RoutineDelay_3935:	; 1 bytes @ 0x10
   584  0030                     	ds	1
   585                           	global	main@RoutineDelay_3939
   586  0031                     main@RoutineDelay_3939:	; 1 bytes @ 0x11
   587  0031                     	ds	1
   588                           	global	main@RoutineDelay_3941
   589  0032                     main@RoutineDelay_3941:	; 1 bytes @ 0x12
   590  0032                     	ds	1
   591                           	global	main@k
   592  0033                     main@k:	; 1 bytes @ 0x13
   593  0033                     	ds	1
   594 ;;Data sizes: Strings 184, constant 0, data 0, bss 15, persistent 0 stack 0
   595 ;;Auto spaces:   Size  Autos    Used
   596 ;; COMMON          14     14      14
   597 ;; BANK0           80     20      35
   598 ;; BANK1           80      0       0
   599 ;; BANK3           96      0       0
   600 ;; BANK2           96      0       0
   601                           
   602 ;;
   603 ;; Pointer list with targets:
   604                           
   605 ;; ?___wmul	unsigned int  size(1) Largest target is 0
   606 ;;
   607 ;; ?_atoi	int  size(1) Largest target is 0
   608 ;;
   609 ;; ?_memset	PTR void  size(1) Largest target is 5
   610 ;;		 -> LocalArray(BANK0[5]), RTC_Keypad@LocalArray(COMMON[4]), 
   611 ;;
   612 ;; memset@p1	PTR void  size(1) Largest target is 5
   613 ;;		 -> LocalArray(BANK0[5]), RTC_Keypad@LocalArray(COMMON[4]), 
   614 ;;
   615 ;; memset@p	PTR unsigned char  size(1) Largest target is 5
   616 ;;		 -> LocalArray(BANK0[5]), RTC_Keypad@LocalArray(COMMON[4]), 
   617 ;;
   618 ;; atoi@s	PTR const unsigned char  size(1) Largest target is 5
   619 ;;		 -> LocalArray(BANK0[5]), RTC_Keypad@LocalArray(COMMON[4]), 
   620 ;;
   621 ;; LCD_Disp@DisplayData	PTR const unsigned char  size(2) Largest target is 17
   622 ;;		 -> STR_15(CODE[17]), STR_14(CODE[17]), STR_13(CODE[17]), STR_12(CODE[17]), 
   623 ;;		 -> STR_11(CODE[17]), STR_10(CODE[17]), STR_9(CODE[17]), STR_8(CODE[17]), 
   624 ;;		 -> STR_7(CODE[17]), STR_6(CODE[16]), STR_5(CODE[15]), STR_4(CODE[17]), 
   625 ;;		 -> STR_3(CODE[17]), LCD_Float@LocalArray(COMMON[10]), LCD_Decimal@LocalArray(COMMON[10]), STR_2(CODE[17]), 
   626 ;;		 -> STR_1(CODE[17]), 
   627 ;;
   628 ;; sp__memset	PTR void  size(1) Largest target is 5
   629 ;;		 -> LocalArray(BANK0[5]), RTC_Keypad@LocalArray(COMMON[4]), 
   630 ;;
   631 ;; FetchKey@Var1	PTR unsigned int  size(1) Largest target is 2
   632 ;;		 -> KeyDebounceTime(BANK0[2]), Keypad@KeyFetchTime(COMMON[2]), 
   633 ;;
   634 ;; sp__strchr	PTR unsigned char  size(1) Largest target is 0
   635 ;;		 -> NULL(NULL[0]), 
   636 ;;
   637 ;; sp__strstr	PTR unsigned char  size(1) Largest target is 0
   638 ;;		 -> NULL(NULL[0]), 
   639 ;;
   640 ;; sp__smemmem	PTR void  size(1) Largest target is 0
   641 ;;		 -> NULL(NULL[0]), 
   642 ;;
   643 ;; sp__smemrchr	PTR unsigned char  size(1) Largest target is 0
   644 ;;		 -> NULL(NULL[0]), 
   645 ;;
   646 ;; sp__smemchr	PTR unsigned char  size(1) Largest target is 0
   647 ;;		 -> NULL(NULL[0]), 
   648 ;;
   649                           
   650                           
   651 ;;
   652 ;; Critical Paths under _main in COMMON
   653 ;;
   654 ;;   _main->_atoi
   655 ;;   _ChangePassWord->_atoi
   656 ;;   _LCD_Disp->_LCD_Write
   657 ;;   _LCD_Initialize->_LCD_Command
   658 ;;   _LCD_Write->_LCD_Command
   659 ;;   _atoi->___wmul
   660 ;;   _LCD_Command->_LCD_Allort
   661 ;;
   662 ;; Critical Paths under _main in BANK0
   663 ;;
   664 ;;   _main->_ChangePassWord
   665 ;;
   666 ;; Critical Paths under _main in BANK1
   667 ;;
   668 ;;   None.
   669 ;;
   670 ;; Critical Paths under _main in BANK3
   671 ;;
   672 ;;   None.
   673 ;;
   674 ;; Critical Paths under _main in BANK2
   675 ;;
   676 ;;   None.
   677                           
   678 ;;
   679 ;;Main: autosize = 0, tempsize = 2, incstack = 0, save=0
   680 ;;
   681                           
   682 ;;
   683 ;;Call Graph Tables:
   684 ;;
   685 ;; ---------------------------------------------------------------------------------
   686 ;; (Depth) Function   	        Calls       Base Space   Used Autos Params    Refs
   687 ;; ---------------------------------------------------------------------------------
   688 ;; (0) _main                                                17    17      0    4672
   689 ;;                                              3 BANK0     17    17      0
   690 ;;                        _eeprom_read
   691 ;;                               _atoi
   692 ;;                             _memset
   693 ;;                     _LCD_Initialize
   694 ;;                  _Keypad_Initialize
   695 ;;                           _LCD_Disp
   696 ;;                        _LCD_Command
   697 ;;                           _FetchKey
   698 ;;                     _ChangePassWord
   699 ;;                          _LCD_Write
   700 ;;                            _isdigit
   701 ;; ---------------------------------------------------------------------------------
   702 ;; (1) _ChangePassWord                                       3     3      0    2169
   703 ;;                                              0 BANK0      3     3      0
   704 ;;                        _LCD_Command
   705 ;;                             _memset
   706 ;;                           _LCD_Disp
   707 ;;                           _FetchKey
   708 ;;                            _isdigit
   709 ;;                          _LCD_Write
   710 ;;                               _atoi
   711 ;;                       _eeprom_write
   712 ;; ---------------------------------------------------------------------------------
   713 ;; (2) _LCD_Disp                                             4     2      2     354
   714 ;;                                              7 COMMON     4     2      2
   715 ;;                          _LCD_Write
   716 ;; ---------------------------------------------------------------------------------
   717 ;; (1) _LCD_Initialize                                       2     2      0     132
   718 ;;                                              4 COMMON     2     2      0
   719 ;;                        _LCD_Command
   720 ;; ---------------------------------------------------------------------------------
   721 ;; (1) _LCD_Write                                            3     2      1     286
   722 ;;                                              4 COMMON     3     2      1
   723 ;;                        _LCD_Command
   724 ;;                         _LCD_Allort
   725 ;; ---------------------------------------------------------------------------------
   726 ;; (2) _atoi                                                 8     6      2     388
   727 ;;                                              6 COMMON     8     6      2
   728 ;;                             ___wmul
   729 ;;                            _isdigit
   730 ;; ---------------------------------------------------------------------------------
   731 ;; (2) _LCD_Command                                          2     2      0     132
   732 ;;                                              2 COMMON     2     2      0
   733 ;;                         _LCD_Allort
   734 ;; ---------------------------------------------------------------------------------
   735 ;; (2) _FetchKey                                             5     5      0     705
   736 ;;                                              0 COMMON     5     5      0
   737 ;; ---------------------------------------------------------------------------------
   738 ;; (3) ___wmul                                               6     2      4      92
   739 ;;                                              0 COMMON     6     2      4
   740 ;; ---------------------------------------------------------------------------------
   741 ;; (2) _eeprom_write                                         3     2      1      50
   742 ;;                                              0 COMMON     3     2      1
   743 ;; ---------------------------------------------------------------------------------
   744 ;; (1) _eeprom_read                                          2     2      0      22
   745 ;;                                              0 COMMON     2     2      0
   746 ;; ---------------------------------------------------------------------------------
   747 ;; (2) _LCD_Allort                                           2     2      0      88
   748 ;;                                              0 COMMON     2     2      0
   749 ;; ---------------------------------------------------------------------------------
   750 ;; (2) _memset                                               7     3      4      96
   751 ;;                                              0 COMMON     7     3      4
   752 ;; ---------------------------------------------------------------------------------
   753 ;; (1) _Keypad_Initialize                                    1     1      0       0
   754 ;;                                              0 COMMON     1     1      0
   755 ;; ---------------------------------------------------------------------------------
   756 ;; (1) _isdigit                                              2     2      0      68
   757 ;;                                              0 COMMON     2     2      0
   758 ;; ---------------------------------------------------------------------------------
   759 ;; Estimated maximum stack depth 3
   760 ;; ---------------------------------------------------------------------------------
   761                           
   762 ;; Call Graph Graphs:
   763                           
   764 ;; _main (ROOT)
   765 ;;   _eeprom_read
   766 ;;   _atoi
   767 ;;     ___wmul
   768 ;;     _isdigit
   769 ;;   _memset
   770 ;;   _LCD_Initialize
   771 ;;     _LCD_Command
   772 ;;       _LCD_Allort
   773 ;;   _Keypad_Initialize
   774 ;;   _LCD_Disp
   775 ;;     _LCD_Write
   776 ;;       _LCD_Command
   777 ;;         _LCD_Allort
   778 ;;       _LCD_Allort
   779 ;;   _LCD_Command
   780 ;;     _LCD_Allort
   781 ;;   _FetchKey
   782 ;;   _ChangePassWord
   783 ;;     _LCD_Command
   784 ;;       _LCD_Allort
   785 ;;     _memset
   786 ;;     _LCD_Disp
   787 ;;       _LCD_Write
   788 ;;         _LCD_Command
   789 ;;           _LCD_Allort
   790 ;;         _LCD_Allort
   791 ;;     _FetchKey
   792 ;;     _isdigit
   793 ;;     _LCD_Write
   794 ;;       _LCD_Command
   795 ;;         _LCD_Allort
   796 ;;       _LCD_Allort
   797 ;;     _atoi
   798 ;;       ___wmul
   799 ;;       _isdigit
   800 ;;     _eeprom_write
   801 ;;   _LCD_Write
   802 ;;     _LCD_Command
   803 ;;       _LCD_Allort
   804 ;;     _LCD_Allort
   805 ;;   _isdigit
   806 ;;
   807                           
   808 ;; Address spaces:
   809                           
   810 ;;Name               Size   Autos  Total    Cost      Usage
   811 ;;BITCOMMON            E      0       0       0        0.0%
   812 ;;EEDATA             100      0       0       0        0.0%
   813 ;;NULL                 0      0       0       0        0.0%
   814 ;;CODE                 0      0       0       0        0.0%
   815 ;;COMMON               E      E       E       1      100.0%
   816 ;;BITSFR0              0      0       0       1        0.0%
   817 ;;SFR0                 0      0       0       1        0.0%
   818 ;;BITSFR1              0      0       0       2        0.0%
   819 ;;SFR1                 0      0       0       2        0.0%
   820 ;;STACK                0      0       5       2        0.0%
   821 ;;ABS                  0      0      31       3        0.0%
   822 ;;BITBANK0            50      0       0       4        0.0%
   823 ;;BITSFR3              0      0       0       4        0.0%
   824 ;;SFR3                 0      0       0       4        0.0%
   825 ;;BANK0               50     14      23       5       43.8%
   826 ;;BITSFR2              0      0       0       5        0.0%
   827 ;;SFR2                 0      0       0       5        0.0%
   828 ;;BITBANK1            50      0       0       6        0.0%
   829 ;;BANK1               50      0       0       7        0.0%
   830 ;;BITBANK3            60      0       0       8        0.0%
   831 ;;BANK3               60      0       0       9        0.0%
   832 ;;BITBANK2            60      0       0      10        0.0%
   833 ;;BANK2               60      0       0      11        0.0%
   834 ;;DATA                 0      0      36      12        0.0%
   835                           
   836                           	global	_main
   837                           psect	maintext,global,class=CODE,delta=2
   838                           global __pmaintext
   839  02B5                     __pmaintext:
   840                           
   841 ;; *************** function _main *****************
   842 ;; Defined at:
   843 ;;		line 53 in file "E:\pic program\Password Based Circuit Breaker\main.c"
   844 ;; Parameters:    Size  Location     Type
   845 ;;		None
   846 ;; Auto vars:     Size  Location     Type
   847 ;;  RequireDelay    2   11[BANK0 ] unsigned int 
   848 ;;  RequireDelay    2    9[BANK0 ] unsigned int 
   849 ;;  RoutineDelay    1   18[BANK0 ] unsigned char 
   850 ;;  RoutineDelay    1   17[BANK0 ] unsigned char 
   851 ;;  RequireDelay    2    7[BANK0 ] unsigned int 
   852 ;;  RoutineDelay    1   16[BANK0 ] unsigned char 
   853 ;;  RequireDelay    2    5[BANK0 ] unsigned int 
   854 ;;  RoutineDelay    1   15[BANK0 ] unsigned char 
   855 ;;  k               1   19[BANK0 ] unsigned char 
   856 ;; Return value:  Size  Location     Type
   857 ;;		None               void
   858 ;; Registers used:
   859 ;;		wreg, fsr0l, fsr0h, status,2, status,0, btemp+1, pclath, cstack
   860 ;; Tracked objects:
   861 ;;		On entry : 17F/0
   862 ;;		On exit  : 0/0
   863 ;;		Unchanged: 0/0
   864 ;; Data sizes:     COMMON   BANK0   BANK1   BANK3   BANK2
   865 ;;      Params:         0       0       0       0       0
   866 ;;      Locals:         0      15       0       0       0
   867 ;;      Temps:          0       2       0       0       0
   868 ;;      Totals:         0      17       0       0       0
   869 ;;Total ram usage:       17 bytes
   870 ;; Hardware stack levels required when called:    5
   871 ;; This function calls:
   872 ;;		_eeprom_read
   873 ;;		_atoi
   874 ;;		_memset
   875 ;;		_LCD_Initialize
   876 ;;		_Keypad_Initialize
   877 ;;		_LCD_Disp
   878 ;;		_LCD_Command
   879 ;;		_FetchKey
   880 ;;		_ChangePassWord
   881 ;;		_LCD_Write
   882 ;;		_isdigit
   883 ;; This function is called by:
   884 ;;		Startup code after reset
   885 ;; This function uses a non-reentrant model
   886 ;;
   887                           psect	maintext
   888                           	file	"E:\pic program\Password Based Circuit Breaker\main.c"
   889                           	line	53
   890                           	global	__size_of_main
   891  027B                     	__size_of_main	equ	__end_of_main-_main
   892                           	
   893  02B5                     _main:	
   894                           	opt	stack 3
   895                           ; Regs used in _main: [wreg-fsr0h+status,2+status,0+btemp+1+pclath+cstack]
   896                           	line	54
   897                           	
   898  02B5                     l8257:	
   899                           ;main.c: 54: ADCON1 = CMCON = 0x07;
   900  02B5  3007               	movlw	(07h)
   901  02B6  1683               	bsf	status, 5	;RP0=1, select bank1
   902  02B7  1303               	bcf	status, 6	;RP1=0, select bank1
   903  02B8  009C               	movwf	(156)^080h	;volatile
   904  02B9  009F               	movwf	(159)^080h	;volatile
   905                           	line	55
   906                           	
   907  02BA                     l8259:	
   908                           ;main.c: 55: TRISD &=~ (1 << 1);
   909  02BA  30FD               	movlw	(0FDh)
   910  02BB  1283               	bcf	status, 5	;RP0=0, select bank0
   911  02BC  1303               	bcf	status, 6	;RP1=0, select bank0
   912  02BD  00A3               	movwf	(??_main+0)+0
   913  02BE  0823               	movf	(??_main+0)+0,w
   914  02BF  1683               	bsf	status, 5	;RP0=1, select bank1
   915  02C0  1303               	bcf	status, 6	;RP1=0, select bank1
   916  02C1  0588               	andwf	(136)^080h,f	;volatile
   917                           	line	56
   918                           	
   919  02C2                     l8261:	
   920                           ;main.c: 56: PORTD &=~ (1 << 1);
   921  02C2  30FD               	movlw	(0FDh)
   922  02C3  1283               	bcf	status, 5	;RP0=0, select bank0
   923  02C4  1303               	bcf	status, 6	;RP1=0, select bank0
   924  02C5  00A3               	movwf	(??_main+0)+0
   925  02C6  0823               	movf	(??_main+0)+0,w
   926  02C7  0588               	andwf	(8),f	;volatile
   927                           	line	57
   928                           	
   929  02C8                     l8263:	
   930                           ;main.c: 57: TRISD &=~ (1 << 0);
   931  02C8  30FE               	movlw	(0FEh)
   932  02C9  00A3               	movwf	(??_main+0)+0
   933  02CA  0823               	movf	(??_main+0)+0,w
   934  02CB  1683               	bsf	status, 5	;RP0=1, select bank1
   935  02CC  1303               	bcf	status, 6	;RP1=0, select bank1
   936  02CD  0588               	andwf	(136)^080h,f	;volatile
   937                           	line	58
   938                           	
   939  02CE                     l8265:	
   940                           ;main.c: 58: PORTD &=~ (1 << 0);
   941  02CE  30FE               	movlw	(0FEh)
   942  02CF  1283               	bcf	status, 5	;RP0=0, select bank0
   943  02D0  1303               	bcf	status, 6	;RP1=0, select bank0
   944  02D1  00A3               	movwf	(??_main+0)+0
   945  02D2  0823               	movf	(??_main+0)+0,w
   946  02D3  0588               	andwf	(8),f	;volatile
   947                           	line	60
   948                           	
   949  02D4                     l8267:	
   950                           ;main.c: 60: for(char k = 0; k < 4; k++)
   951  02D4  01B3               	clrf	(main@k)
   952  02D5  3004               	movlw	(04h)
   953  02D6  0233               	subwf	(main@k),w
   954  02D7  1C03               	skipc
   955  02D8  2ADA               	goto	u4691
   956  02D9  2ADB               	goto	u4690
   957  02DA                     u4691:
   958  02DA  2ADD               	goto	l8271
   959  02DB                     u4690:
   960  02DB  2B11               	goto	l8283
   961                           	
   962  02DC                     l8269:	
   963  02DC  2B11               	goto	l8283
   964                           	line	61
   965                           	
   966  02DD                     l3066:	
   967                           	
   968  02DD                     l8271:	
   969                           ;main.c: 61: LocalArray[k] = (eeprom_read(0x00 + k) == 0xFF ?0 :eeprom_read(0x00 + k));
   970  02DD  0833               	movf	(main@k),w
   971  02DE  120A  158A  25C4   	fcall	_eeprom_read
              120A  118A         
   972  02E3  3AFF               	xorlw	0FFh
   973  02E4  1903               	skipnz
   974  02E5  2AE7               	goto	u4701
   975  02E6  2AE8               	goto	u4700
   976  02E7                     u4701:
   977  02E7  2AF9               	goto	l8275
   978  02E8                     u4700:
   979                           	
   980  02E8                     l8273:	
   981  02E8  1283               	bcf	status, 5	;RP0=0, select bank0
   982  02E9  1303               	bcf	status, 6	;RP1=0, select bank0
   983  02EA  0833               	movf	(main@k),w
   984  02EB  120A  158A  25C4   	fcall	_eeprom_read
              120A  118A         
   985  02F0  1283               	bcf	status, 5	;RP0=0, select bank0
   986  02F1  1303               	bcf	status, 6	;RP1=0, select bank0
   987  02F2  00A3               	movwf	(??_main+0)+0
   988  02F3  01A4               	clrf	(??_main+0)+0+1
   989  02F4  0823               	movf	0+(??_main+0)+0,w
   990  02F5  00AD               	movwf	(_main$3926)
   991  02F6  0824               	movf	1+(??_main+0)+0,w
   992  02F7  00AE               	movwf	(_main$3926+1)
   993  02F8  2AFE               	goto	l8277
   994                           	
   995  02F9                     l3069:	
   996                           	
   997  02F9                     l8275:	
   998  02F9  1283               	bcf	status, 5	;RP0=0, select bank0
   999  02FA  1303               	bcf	status, 6	;RP1=0, select bank0
  1000  02FB  01AD               	clrf	(_main$3926)
  1001  02FC  01AE               	clrf	(_main$3926+1)
  1002  02FD  2AFE               	goto	l8277
  1003                           	
  1004  02FE                     l3071:	
  1005                           	
  1006  02FE                     l8277:	
  1007  02FE  082D               	movf	(_main$3926),w
  1008  02FF  00A3               	movwf	(??_main+0)+0
  1009  0300  0833               	movf	(main@k),w
  1010  0301  3E3C               	addlw	_LocalArray&0ffh
  1011  0302  0084               	movwf	fsr0
  1012  0303  0823               	movf	(??_main+0)+0,w
  1013  0304  1383               	bcf	status, 7	;select IRP bank0
  1014  0305  0080               	movwf	indf
  1015                           	line	60
  1016                           	
  1017  0306                     l8279:	
  1018  0306  3001               	movlw	(01h)
  1019  0307  00A3               	movwf	(??_main+0)+0
  1020  0308  0823               	movf	(??_main+0)+0,w
  1021  0309  07B3               	addwf	(main@k),f
  1022                           	
  1023  030A                     l8281:	
  1024  030A  3004               	movlw	(04h)
  1025  030B  0233               	subwf	(main@k),w
  1026  030C  1C03               	skipc
  1027  030D  2B0F               	goto	u4711
  1028  030E  2B10               	goto	u4710
  1029  030F                     u4711:
  1030  030F  2ADD               	goto	l8271
  1031  0310                     u4710:
  1032  0310  2B11               	goto	l8283
  1033                           	
  1034  0311                     l3067:	
  1035                           	line	62
  1036                           	
  1037  0311                     l8283:	
  1038                           ;main.c: 62: LastPassWord = atoi((char*)LocalArray);
  1039  0311  303C               	movlw	(_LocalArray)&0ffh
  1040  0312  120A  158A  2778   	fcall	_atoi
              120A  118A         
  1041  0317  0877               	movf	(1+(?_atoi)),w
  1042  0318  1283               	bcf	status, 5	;RP0=0, select bank0
  1043  0319  1303               	bcf	status, 6	;RP1=0, select bank0
  1044  031A  01B9               	clrf	(_LastPassWord+1)
  1045  031B  07B9               	addwf	(_LastPassWord+1)
  1046  031C  0876               	movf	(0+(?_atoi)),w
  1047  031D  01B8               	clrf	(_LastPassWord)
  1048  031E  07B8               	addwf	(_LastPassWord)
  1049                           
  1050                           	line	64
  1051                           ;main.c: 64: memset(LocalArray, '\0', sizeof(LocalArray));
  1052  031F  3000               	movlw	low(0)
  1053  0320  00F0               	movwf	(?_memset)
  1054  0321  3000               	movlw	high(0)
  1055  0322  00F1               	movwf	((?_memset))+1
  1056  0323  3005               	movlw	low(05h)
  1057  0324  00F2               	movwf	0+(?_memset)+02h
  1058  0325  3000               	movlw	high(05h)
  1059  0326  00F3               	movwf	(0+(?_memset)+02h)+1
  1060  0327  303C               	movlw	(_LocalArray)&0ffh
  1061  0328  120A  158A  25E3   	fcall	_memset
              120A  118A         
  1062                           	line	65
  1063                           	
  1064  032D                     l8285:	
  1065                           ;main.c: 65: LocalCount = 0;
  1066  032D  1283               	bcf	status, 5	;RP0=0, select bank0
  1067  032E  1303               	bcf	status, 6	;RP1=0, select bank0
  1068  032F  01BA               	clrf	(_LocalCount)
  1069                           	line	67
  1070                           	
  1071  0330                     l8287:	
  1072                           ;main.c: 67: LCD_Initialize(); Keypad_Initialize();
  1073  0330  120A  118A  20E3   	fcall	_LCD_Initialize
              120A  118A         
  1074                           	
  1075  0335                     l8289:	
  1076  0335  120A  118A  20CC   	fcall	_Keypad_Initialize
              120A  118A         
  1077                           	line	68
  1078                           	
  1079  033A                     l8291:	
  1080                           ;main.c: 68: LCD_Disp(0x80,"PASWRD BASE POWE");
  1081  033A  3067               	movlw	low((STR_3-__stringbase))
  1082  033B  00F7               	movwf	(?_LCD_Disp)
  1083  033C  3080               	movlw	80h
  1084  033D  00F8               	movwf	(?_LCD_Disp+1)
  1085  033E  3080               	movlw	(080h)
  1086  033F  120A  158A  2694   	fcall	_LCD_Disp
              120A  118A         
  1087                           	line	69
  1088                           	
  1089  0344                     l8293:	
  1090                           ;main.c: 69: LCD_Disp(0xC0,"     SYSTEM     ");
  1091  0344  3012               	movlw	low((STR_4-__stringbase))
  1092  0345  00F7               	movwf	(?_LCD_Disp)
  1093  0346  3080               	movlw	80h
  1094  0347  00F8               	movwf	(?_LCD_Disp+1)
  1095  0348  30C0               	movlw	(0C0h)
  1096  0349  120A  158A  2694   	fcall	_LCD_Disp
              120A  118A         
  1097                           	line	70
  1098                           	
  1099  034E                     l8295:	
  1100                           ;main.c: 70: { unsigned char RoutineDelay; unsigned int RequireDelay = 300; do { Routine
                                 Delay = 4; do { _delay((unsigned long)((250)*(20000000UL/4000000.0))); } while(--Routine
                                 Delay); } while(--RequireDelay);}; { LCD_Command(0x01); _delay((unsigned long)((20)*(20
  1101  034E  302C               	movlw	low(012Ch)
  1102  034F  1283               	bcf	status, 5	;RP0=0, select bank0
  1103  0350  1303               	bcf	status, 6	;RP1=0, select bank0
  1104  0351  00A5               	movwf	(main@RequireDelay)
  1105  0352  3001               	movlw	high(012Ch)
  1106  0353  00A6               	movwf	((main@RequireDelay))+1
  1107  0354  2B55               	goto	l8297
  1108                           	
  1109  0355                     l3072:	
  1110                           	
  1111  0355                     l8297:	
  1112  0355  3004               	movlw	(04h)
  1113  0356  00A3               	movwf	(??_main+0)+0
  1114  0357  0823               	movf	(??_main+0)+0,w
  1115  0358  00AF               	movwf	(main@RoutineDelay)
  1116  0359  2B5A               	goto	l8299
  1117                           	
  1118  035A                     l3073:	
  1119                           	
  1120  035A                     l8299:	
  1121                           	opt asmopt_off
  1122  035A  30F9               movlw	249
  1123  035B  00A3               movwf	(??_main+0)+0,f
  1124  035C                     u4877:
  1125  035C  2B5D               	nop2
  1126  035D  0BA3               decfsz	(??_main+0)+0,f
  1127  035E  2B5C               	goto	u4877
  1128  035F  2B60               	nop2	;nop
  1129  0360  2B61               	nop2	;nop
  1130                           opt asmopt_on
  1131                           
  1132                           	
  1133  0361                     l8301:	
  1134  0361  3001               	movlw	low(01h)
  1135  0362  1283               	bcf	status, 5	;RP0=0, select bank0
  1136  0363  1303               	bcf	status, 6	;RP1=0, select bank0
  1137  0364  02AF               	subwf	(main@RoutineDelay),f
  1138  0365  1D03               	btfss	status,2
  1139  0366  2B68               	goto	u4721
  1140  0367  2B69               	goto	u4720
  1141  0368                     u4721:
  1142  0368  2B5A               	goto	l8299
  1143  0369                     u4720:
  1144  0369  2B6A               	goto	l8303
  1145                           	
  1146  036A                     l3074:	
  1147                           	
  1148  036A                     l8303:	
  1149  036A  3001               	movlw	low(01h)
  1150  036B  02A5               	subwf	(main@RequireDelay),f
  1151  036C  3000               	movlw	high(01h)
  1152  036D  1C03               	skipc
  1153  036E  03A6               	decf	(main@RequireDelay+1),f
  1154  036F  02A6               	subwf	(main@RequireDelay+1),f
  1155  0370  0826               	movf	(((main@RequireDelay+1))),w
  1156  0371  0425               	iorwf	(((main@RequireDelay))),w
  1157  0372  1D03               	skipz
  1158  0373  2B75               	goto	u4731
  1159  0374  2B76               	goto	u4730
  1160  0375                     u4731:
  1161  0375  2B55               	goto	l8297
  1162  0376                     u4730:
  1163  0376  2B77               	goto	l8305
  1164                           	
  1165  0377                     l3075:	
  1166                           	
  1167  0377                     l8305:	
  1168  0377  3001               	movlw	(01h)
  1169  0378  120A  158A  26C7   	fcall	_LCD_Command
              120A  118A         
  1170                           	
  1171  037D                     l8307:	
  1172                           	opt asmopt_off
  1173  037D  3082               movlw	130
  1174  037E  1283               	bcf	status, 5	;RP0=0, select bank0
  1175  037F  1303               	bcf	status, 6	;RP1=0, select bank0
  1176  0380  00A4               movwf	((??_main+0)+0+1),f
  1177  0381  30DD               	movlw	221
  1178  0382  00A3               movwf	((??_main+0)+0),f
  1179  0383                     u4887:
  1180  0383  0BA3               	decfsz	((??_main+0)+0),f
  1181  0384  2B83               	goto	u4887
  1182  0385  0BA4               	decfsz	((??_main+0)+0+1),f
  1183  0386  2B83               	goto	u4887
  1184  0387  2B88               	nop2
  1185                           opt asmopt_on
  1186                           
  1187                           	line	72
  1188                           	
  1189  0388                     l8309:	
  1190                           ;main.c: 72: LCD_Disp(0x80,"ENTER PASSWORD");
  1191  0388  30AA               	movlw	low((STR_5-__stringbase))
  1192  0389  00F7               	movwf	(?_LCD_Disp)
  1193  038A  3080               	movlw	80h
  1194  038B  00F8               	movwf	(?_LCD_Disp+1)
  1195  038C  3080               	movlw	(080h)
  1196  038D  120A  158A  2694   	fcall	_LCD_Disp
              120A  118A         
  1197  0392  2B93               	goto	l8311
  1198                           	line	74
  1199                           ;main.c: 74: while(1)
  1200                           	
  1201  0393                     l3076:	
  1202                           	line	76
  1203                           	
  1204  0393                     l8311:	
  1205                           ;main.c: 75: {
  1206                           ;main.c: 76: LastDetectedKey = FetchKey(&KeyDebounceTime);
  1207  0393  3041               	movlw	(_KeyDebounceTime)&0ffh
  1208  0394  120A  118A  2530   	fcall	_FetchKey
              120A  118A         
  1209  0399  1283               	bcf	status, 5	;RP0=0, select bank0
  1210  039A  1303               	bcf	status, 6	;RP1=0, select bank0
  1211  039B  00A3               	movwf	(??_main+0)+0
  1212  039C  01A4               	clrf	(??_main+0)+0+1
  1213  039D  0823               	movf	0+(??_main+0)+0,w
  1214  039E  00B6               	movwf	(_LastDetectedKey)
  1215  039F  0824               	movf	1+(??_main+0)+0,w
  1216  03A0  00B7               	movwf	(_LastDetectedKey+1)
  1217                           	line	78
  1218                           	
  1219  03A1                     l8313:	
  1220                           ;main.c: 78: if(LastDetectedKey == '#')
  1221  03A1  3023               	movlw	023h
  1222  03A2  0636               	xorwf	(_LastDetectedKey),w
  1223  03A3  0437               	iorwf	(_LastDetectedKey+1),w
  1224  03A4  1D03               	skipz
  1225  03A5  2BA7               	goto	u4741
  1226  03A6  2BA8               	goto	u4740
  1227  03A7                     u4741:
  1228  03A7  2BC9               	goto	l8323
  1229  03A8                     u4740:
  1230                           	line	80
  1231                           	
  1232  03A8                     l8315:	
  1233                           ;main.c: 79: {
  1234                           ;main.c: 80: ChangePassWord();
  1235  03A8  120A  118A  2174   	fcall	_ChangePassWord
              120A  118A         
  1236                           	line	81
  1237                           	
  1238  03AD                     l8317:	
  1239                           ;main.c: 81: { LCD_Command(0x01); _delay((unsigned long)((20)*(20000000UL/4000.0)));};
  1240  03AD  3001               	movlw	(01h)
  1241  03AE  120A  158A  26C7   	fcall	_LCD_Command
              120A  118A         
  1242                           	
  1243  03B3                     l8319:	
  1244                           	opt asmopt_off
  1245  03B3  3082               movlw	130
  1246  03B4  1283               	bcf	status, 5	;RP0=0, select bank0
  1247  03B5  1303               	bcf	status, 6	;RP1=0, select bank0
  1248  03B6  00A4               movwf	((??_main+0)+0+1),f
  1249  03B7  30DD               	movlw	221
  1250  03B8  00A3               movwf	((??_main+0)+0),f
  1251  03B9                     u4897:
  1252  03B9  0BA3               	decfsz	((??_main+0)+0),f
  1253  03BA  2BB9               	goto	u4897
  1254  03BB  0BA4               	decfsz	((??_main+0)+0+1),f
  1255  03BC  2BB9               	goto	u4897
  1256  03BD  2BBE               	nop2
  1257                           opt asmopt_on
  1258                           
  1259                           	line	82
  1260                           	
  1261  03BE                     l8321:	
  1262                           ;main.c: 82: LCD_Disp(0x80,"ENTER PASSWORD ");
  1263  03BE  309A               	movlw	low((STR_6-__stringbase))
  1264  03BF  00F7               	movwf	(?_LCD_Disp)
  1265  03C0  3080               	movlw	80h
  1266  03C1  00F8               	movwf	(?_LCD_Disp+1)
  1267  03C2  3080               	movlw	(080h)
  1268  03C3  120A  158A  2694   	fcall	_LCD_Disp
              120A  118A         
  1269  03C8  2BC9               	goto	l8323
  1270                           	line	83
  1271                           	
  1272  03C9                     l3077:	
  1273                           	line	84
  1274                           	
  1275  03C9                     l8323:	
  1276                           ;main.c: 83: }
  1277                           ;main.c: 84: if(LastDetectedKey == '*')
  1278  03C9  302A               	movlw	02Ah
  1279  03CA  1283               	bcf	status, 5	;RP0=0, select bank0
  1280  03CB  1303               	bcf	status, 6	;RP1=0, select bank0
  1281  03CC  0636               	xorwf	(_LastDetectedKey),w
  1282  03CD  0437               	iorwf	(_LastDetectedKey+1),w
  1283  03CE  1D03               	skipz
  1284  03CF  2BD1               	goto	u4751
  1285  03D0  2BD2               	goto	u4750
  1286  03D1                     u4751:
  1287  03D1  2C13               	goto	l8341
  1288  03D2                     u4750:
  1289                           	line	86
  1290                           	
  1291  03D2                     l8325:	
  1292                           ;main.c: 85: {
  1293                           ;main.c: 86: if(KeyDebounceTime < 300)
  1294  03D2  3001               	movlw	high(012Ch)
  1295  03D3  0242               	subwf	(_KeyDebounceTime+1),w
  1296  03D4  302C               	movlw	low(012Ch)
  1297  03D5  1903               	skipnz
  1298  03D6  0241               	subwf	(_KeyDebounceTime),w
  1299  03D7  1803               	skipnc
  1300  03D8  2BDA               	goto	u4761
  1301  03D9  2BDB               	goto	u4760
  1302  03DA                     u4761:
  1303  03DA  2BF6               	goto	l8335
  1304  03DB                     u4760:
  1305                           	line	88
  1306                           	
  1307  03DB                     l8327:	
  1308                           ;main.c: 87: {
  1309                           ;main.c: 88: if(--LocalCount > 4) LocalCount = 0;
  1310  03DB  3001               	movlw	low(01h)
  1311  03DC  02BA               	subwf	(_LocalCount),f
  1312  03DD  3005               	movlw	(05h)
  1313  03DE  023A               	subwf	((_LocalCount)),w
  1314  03DF  1C03               	skipc
  1315  03E0  2BE2               	goto	u4771
  1316  03E1  2BE3               	goto	u4770
  1317  03E2                     u4771:
  1318  03E2  2BE5               	goto	l8331
  1319  03E3                     u4770:
  1320                           	
  1321  03E3                     l8329:	
  1322  03E3  01BA               	clrf	(_LocalCount)
  1323  03E4  2BE5               	goto	l8331
  1324                           	
  1325  03E5                     l3080:	
  1326                           	line	89
  1327                           	
  1328  03E5                     l8331:	
  1329                           ;main.c: 89: LocalArray[LocalCount] = 0;
  1330  03E5  083A               	movf	(_LocalCount),w
  1331  03E6  3E3C               	addlw	_LocalArray&0ffh
  1332  03E7  0084               	movwf	fsr0
  1333  03E8  1383               	bcf	status, 7	;select IRP bank0
  1334  03E9  0180               	clrf	indf
  1335                           	line	90
  1336                           	
  1337  03EA                     l8333:	
  1338                           ;main.c: 90: LCD_Write(0xC0 + LocalCount, ' ');
  1339  03EA  3020               	movlw	(020h)
  1340  03EB  00A3               	movwf	(??_main+0)+0
  1341  03EC  0823               	movf	(??_main+0)+0,w
  1342  03ED  00F4               	movwf	(?_LCD_Write)
  1343  03EE  083A               	movf	(_LocalCount),w
  1344  03EF  3EC0               	addlw	0C0h
  1345  03F0  120A  158A  271E   	fcall	_LCD_Write
              120A  118A         
  1346                           	line	91
  1347                           ;main.c: 91: }
  1348  03F5  2C13               	goto	l8341
  1349                           	line	92
  1350                           	
  1351  03F6                     l3079:	
  1352                           	line	94
  1353                           	
  1354  03F6                     l8335:	
  1355                           ;main.c: 92: else
  1356                           ;main.c: 93: {
  1357                           ;main.c: 94: LCD_Disp(0xC0,"                ");
  1358  03F6  3001               	movlw	low((STR_7-__stringbase))
  1359  03F7  00F7               	movwf	(?_LCD_Disp)
  1360  03F8  3080               	movlw	80h
  1361  03F9  00F8               	movwf	(?_LCD_Disp+1)
  1362  03FA  30C0               	movlw	(0C0h)
  1363  03FB  120A  158A  2694   	fcall	_LCD_Disp
              120A  118A         
  1364                           	line	95
  1365                           	
  1366  0400                     l8337:	
  1367                           ;main.c: 95: memset(LocalArray, '\0', sizeof(LocalArray));
  1368  0400  3000               	movlw	low(0)
  1369  0401  00F0               	movwf	(?_memset)
  1370  0402  3000               	movlw	high(0)
  1371  0403  00F1               	movwf	((?_memset))+1
  1372  0404  3005               	movlw	low(05h)
  1373  0405  00F2               	movwf	0+(?_memset)+02h
  1374  0406  3000               	movlw	high(05h)
  1375  0407  00F3               	movwf	(0+(?_memset)+02h)+1
  1376  0408  303C               	movlw	(_LocalArray)&0ffh
  1377  0409  120A  158A  25E3   	fcall	_memset
              120A  118A         
  1378                           	line	96
  1379                           	
  1380  040E                     l8339:	
  1381                           ;main.c: 96: LocalCount = 0;
  1382  040E  1283               	bcf	status, 5	;RP0=0, select bank0
  1383  040F  1303               	bcf	status, 6	;RP1=0, select bank0
  1384  0410  01BA               	clrf	(_LocalCount)
  1385  0411  2C13               	goto	l8341
  1386                           	line	97
  1387                           	
  1388  0412                     l3081:	
  1389  0412  2C13               	goto	l8341
  1390                           	line	98
  1391                           	
  1392  0413                     l3078:	
  1393                           	line	99
  1394                           	
  1395  0413                     l8341:	
  1396                           ;main.c: 97: }
  1397                           ;main.c: 98: }
  1398                           ;main.c: 99: if(isdigit(LastDetectedKey))
  1399  0413  1283               	bcf	status, 5	;RP0=0, select bank0
  1400  0414  1303               	bcf	status, 6	;RP1=0, select bank0
  1401  0415  0836               	movf	(_LastDetectedKey),w
  1402  0416  120A  158A  25AF   	fcall	_isdigit
              120A  118A         
  1403  041B  1C03               	btfss	status,0
  1404  041C  2C1E               	goto	u4781
  1405  041D  2C1F               	goto	u4780
  1406  041E                     u4781:
  1407  041E  2C3E               	goto	l8349
  1408  041F                     u4780:
  1409                           	line	101
  1410                           	
  1411  041F                     l8343:	
  1412                           ;main.c: 100: {
  1413                           ;main.c: 101: LocalArray[LocalCount] = LastDetectedKey;
  1414  041F  1283               	bcf	status, 5	;RP0=0, select bank0
  1415  0420  1303               	bcf	status, 6	;RP1=0, select bank0
  1416  0421  0836               	movf	(_LastDetectedKey),w
  1417  0422  00A3               	movwf	(??_main+0)+0
  1418  0423  083A               	movf	(_LocalCount),w
  1419  0424  3E3C               	addlw	_LocalArray&0ffh
  1420  0425  0084               	movwf	fsr0
  1421  0426  0823               	movf	(??_main+0)+0,w
  1422  0427  1383               	bcf	status, 7	;select IRP bank0
  1423  0428  0080               	movwf	indf
  1424                           	line	102
  1425                           	
  1426  0429                     l8345:	
  1427                           ;main.c: 102: LCD_Write(0xC0 + LocalCount, LocalArray[LocalCount]);
  1428  0429  083A               	movf	(_LocalCount),w
  1429  042A  3E3C               	addlw	_LocalArray&0ffh
  1430  042B  0084               	movwf	fsr0
  1431  042C  0800               	movf	indf,w
  1432  042D  00A3               	movwf	(??_main+0)+0
  1433  042E  0823               	movf	(??_main+0)+0,w
  1434  042F  00F4               	movwf	(?_LCD_Write)
  1435  0430  083A               	movf	(_LocalCount),w
  1436  0431  3EC0               	addlw	0C0h
  1437  0432  120A  158A  271E   	fcall	_LCD_Write
              120A  118A         
  1438                           	line	103
  1439                           	
  1440  0437                     l8347:	
  1441                           ;main.c: 103: LocalCount++;
  1442  0437  3001               	movlw	(01h)
  1443  0438  1283               	bcf	status, 5	;RP0=0, select bank0
  1444  0439  1303               	bcf	status, 6	;RP1=0, select bank0
  1445  043A  00A3               	movwf	(??_main+0)+0
  1446  043B  0823               	movf	(??_main+0)+0,w
  1447  043C  07BA               	addwf	(_LocalCount),f
  1448  043D  2C3E               	goto	l8349
  1449                           	line	104
  1450                           	
  1451  043E                     l3082:	
  1452                           	line	105
  1453                           	
  1454  043E                     l8349:	
  1455                           ;main.c: 104: }
  1456                           ;main.c: 105: if(LocalCount > 3)
  1457  043E  3004               	movlw	(04h)
  1458  043F  1283               	bcf	status, 5	;RP0=0, select bank0
  1459  0440  1303               	bcf	status, 6	;RP1=0, select bank0
  1460  0441  023A               	subwf	(_LocalCount),w
  1461  0442  1C03               	skipc
  1462  0443  2C45               	goto	u4791
  1463  0444  2C46               	goto	u4790
  1464  0445                     u4791:
  1465  0445  2B93               	goto	l8311
  1466  0446                     u4790:
  1467                           	line	107
  1468                           	
  1469  0446                     l8351:	
  1470                           ;main.c: 106: {
  1471                           ;main.c: 107: DetectedPassWord = atoi((char*)LocalArray);
  1472  0446  303C               	movlw	(_LocalArray)&0ffh
  1473  0447  120A  158A  2778   	fcall	_atoi
              120A  118A         
  1474  044C  0877               	movf	(1+(?_atoi)),w
  1475  044D  1283               	bcf	status, 5	;RP0=0, select bank0
  1476  044E  1303               	bcf	status, 6	;RP1=0, select bank0
  1477  044F  01B5               	clrf	(_DetectedPassWord+1)
  1478  0450  07B5               	addwf	(_DetectedPassWord+1)
  1479  0451  0876               	movf	(0+(?_atoi)),w
  1480  0452  01B4               	clrf	(_DetectedPassWord)
  1481  0453  07B4               	addwf	(_DetectedPassWord)
  1482                           
  1483                           	line	108
  1484                           	
  1485  0454                     l8353:	
  1486                           ;main.c: 108: if(LastPassWord == DetectedPassWord)
  1487  0454  0835               	movf	(_DetectedPassWord+1),w
  1488  0455  0639               	xorwf	(_LastPassWord+1),w
  1489  0456  1D03               	skipz
  1490  0457  2C5A               	goto	u4805
  1491  0458  0834               	movf	(_DetectedPassWord),w
  1492  0459  0638               	xorwf	(_LastPassWord),w
  1493  045A                     u4805:
  1494                           
  1495  045A  1D03               	skipz
  1496  045B  2C5D               	goto	u4801
  1497  045C  2C5E               	goto	u4800
  1498  045D                     u4801:
  1499  045D  2CB1               	goto	l8375
  1500  045E                     u4800:
  1501                           	line	110
  1502                           	
  1503  045E                     l8355:	
  1504                           ;main.c: 109: {
  1505                           ;main.c: 110: LCD_Disp(0xC0,"PASSWORD MATCHED");
  1506  045E  3034               	movlw	low((STR_8-__stringbase))
  1507  045F  00F7               	movwf	(?_LCD_Disp)
  1508  0460  3080               	movlw	80h
  1509  0461  00F8               	movwf	(?_LCD_Disp+1)
  1510  0462  30C0               	movlw	(0C0h)
  1511  0463  120A  158A  2694   	fcall	_LCD_Disp
              120A  118A         
  1512                           	line	111
  1513                           	
  1514  0468                     l8357:	
  1515                           ;main.c: 111: PORTD ^= (1 << 1); { unsigned char RoutineDelay; unsigned int RequireDelay
                                  = 100; do { RoutineDelay = 4; do { _delay((unsigned long)((250)*(20000000UL/4000000.0))
                                 ); } while(--RoutineDelay); } while(--RequireDelay);};
  1516  0468  3002               	movlw	(02h)
  1517  0469  1283               	bcf	status, 5	;RP0=0, select bank0
  1518  046A  1303               	bcf	status, 6	;RP1=0, select bank0
  1519  046B  00A3               	movwf	(??_main+0)+0
  1520  046C  0823               	movf	(??_main+0)+0,w
  1521  046D  0688               	xorwf	(8),f	;volatile
  1522                           	
  1523  046E                     l8359:	
  1524  046E  3064               	movlw	low(064h)
  1525  046F  00A7               	movwf	(main@RequireDelay_3936)
  1526  0470  3000               	movlw	high(064h)
  1527  0471  00A8               	movwf	((main@RequireDelay_3936))+1
  1528  0472  2C73               	goto	l8361
  1529                           	
  1530  0473                     l3085:	
  1531                           	
  1532  0473                     l8361:	
  1533  0473  3004               	movlw	(04h)
  1534  0474  00A3               	movwf	(??_main+0)+0
  1535  0475  0823               	movf	(??_main+0)+0,w
  1536  0476  00B0               	movwf	(main@RoutineDelay_3935)
  1537  0477  2C78               	goto	l8363
  1538                           	
  1539  0478                     l3086:	
  1540                           	
  1541  0478                     l8363:	
  1542                           	opt asmopt_off
  1543  0478  30F9               movlw	249
  1544  0479  00A3               movwf	(??_main+0)+0,f
  1545  047A                     u4907:
  1546  047A  2C7B               	nop2
  1547  047B  0BA3               decfsz	(??_main+0)+0,f
  1548  047C  2C7A               	goto	u4907
  1549  047D  2C7E               	nop2	;nop
  1550  047E  2C7F               	nop2	;nop
  1551                           opt asmopt_on
  1552                           
  1553                           	
  1554  047F                     l8365:	
  1555  047F  3001               	movlw	low(01h)
  1556  0480  1283               	bcf	status, 5	;RP0=0, select bank0
  1557  0481  1303               	bcf	status, 6	;RP1=0, select bank0
  1558  0482  02B0               	subwf	(main@RoutineDelay_3935),f
  1559  0483  1D03               	btfss	status,2
  1560  0484  2C86               	goto	u4811
  1561  0485  2C87               	goto	u4810
  1562  0486                     u4811:
  1563  0486  2C78               	goto	l8363
  1564  0487                     u4810:
  1565  0487  2C88               	goto	l8367
  1566                           	
  1567  0488                     l3087:	
  1568                           	
  1569  0488                     l8367:	
  1570  0488  3001               	movlw	low(01h)
  1571  0489  02A7               	subwf	(main@RequireDelay_3936),f
  1572  048A  3000               	movlw	high(01h)
  1573  048B  1C03               	skipc
  1574  048C  03A8               	decf	(main@RequireDelay_3936+1),f
  1575  048D  02A8               	subwf	(main@RequireDelay_3936+1),f
  1576  048E  0828               	movf	(((main@RequireDelay_3936+1))),w
  1577  048F  0427               	iorwf	(((main@RequireDelay_3936))),w
  1578  0490  1D03               	skipz
  1579  0491  2C93               	goto	u4821
  1580  0492  2C94               	goto	u4820
  1581  0493                     u4821:
  1582  0493  2C73               	goto	l8361
  1583  0494                     u4820:
  1584  0494  2C95               	goto	l8369
  1585                           	
  1586  0495                     l3088:	
  1587                           	line	112
  1588                           	
  1589  0495                     l8369:	
  1590                           ;main.c: 112: memset(LocalArray, '\0', sizeof(LocalArray));
  1591  0495  3000               	movlw	low(0)
  1592  0496  00F0               	movwf	(?_memset)
  1593  0497  3000               	movlw	high(0)
  1594  0498  00F1               	movwf	((?_memset))+1
  1595  0499  3005               	movlw	low(05h)
  1596  049A  00F2               	movwf	0+(?_memset)+02h
  1597  049B  3000               	movlw	high(05h)
  1598  049C  00F3               	movwf	(0+(?_memset)+02h)+1
  1599  049D  303C               	movlw	(_LocalArray)&0ffh
  1600  049E  120A  158A  25E3   	fcall	_memset
              120A  118A         
  1601                           	line	113
  1602                           	
  1603  04A3                     l8371:	
  1604                           ;main.c: 113: LocalCount = 0; LCD_Disp(0xC0,"                ");
  1605  04A3  1283               	bcf	status, 5	;RP0=0, select bank0
  1606  04A4  1303               	bcf	status, 6	;RP1=0, select bank0
  1607  04A5  01BA               	clrf	(_LocalCount)
  1608                           	
  1609  04A6                     l8373:	
  1610  04A6  3001               	movlw	low((STR_9-__stringbase))
  1611  04A7  00F7               	movwf	(?_LCD_Disp)
  1612  04A8  3080               	movlw	80h
  1613  04A9  00F8               	movwf	(?_LCD_Disp+1)
  1614  04AA  30C0               	movlw	(0C0h)
  1615  04AB  120A  158A  2694   	fcall	_LCD_Disp
              120A  118A         
  1616                           	line	114
  1617                           ;main.c: 114: }
  1618  04B0  2B93               	goto	l8311
  1619                           	line	115
  1620                           	
  1621  04B1                     l3084:	
  1622                           	line	117
  1623                           	
  1624  04B1                     l8375:	
  1625                           ;main.c: 115: else
  1626                           ;main.c: 116: {
  1627                           ;main.c: 117: LCD_Disp(0xC0,"PASSWORD NT MATC");
  1628  04B1  3023               	movlw	low((STR_10-__stringbase))
  1629  04B2  00F7               	movwf	(?_LCD_Disp)
  1630  04B3  3080               	movlw	80h
  1631  04B4  00F8               	movwf	(?_LCD_Disp+1)
  1632  04B5  30C0               	movlw	(0C0h)
  1633  04B6  120A  158A  2694   	fcall	_LCD_Disp
              120A  118A         
  1634                           	line	118
  1635                           	
  1636  04BB                     l8377:	
  1637                           ;main.c: 118: PORTD |= (1 << 0);
  1638  04BB  1283               	bcf	status, 5	;RP0=0, select bank0
  1639  04BC  1303               	bcf	status, 6	;RP1=0, select bank0
  1640  04BD  1408               	bsf	(8)+(0/8),(0)&7	;volatile
  1641                           	line	119
  1642                           	
  1643  04BE                     l8379:	
  1644                           ;main.c: 119: { unsigned char RoutineDelay; unsigned int RequireDelay = 500; do { Routin
                                 eDelay = 4; do { _delay((unsigned long)((250)*(20000000UL/4000000.0))); } while(--Routin
                                 eDelay); } while(--RequireDelay);}; { unsigned char RoutineDelay; unsigned int RequireDe
  1645  04BE  30F4               	movlw	low(01F4h)
  1646  04BF  00A9               	movwf	(main@RequireDelay_3940)
  1647  04C0  3001               	movlw	high(01F4h)
  1648  04C1  00AA               	movwf	((main@RequireDelay_3940))+1
  1649  04C2  2CC3               	goto	l8381
  1650                           	
  1651  04C3                     l3090:	
  1652                           	
  1653  04C3                     l8381:	
  1654  04C3  3004               	movlw	(04h)
  1655  04C4  00A3               	movwf	(??_main+0)+0
  1656  04C5  0823               	movf	(??_main+0)+0,w
  1657  04C6  00B1               	movwf	(main@RoutineDelay_3939)
  1658  04C7  2CC8               	goto	l8383
  1659                           	
  1660  04C8                     l3091:	
  1661                           	
  1662  04C8                     l8383:	
  1663                           	opt asmopt_off
  1664  04C8  30F9               movlw	249
  1665  04C9  00A3               movwf	(??_main+0)+0,f
  1666  04CA                     u4917:
  1667  04CA  2CCB               	nop2
  1668  04CB  0BA3               decfsz	(??_main+0)+0,f
  1669  04CC  2CCA               	goto	u4917
  1670  04CD  2CCE               	nop2	;nop
  1671  04CE  2CCF               	nop2	;nop
  1672                           opt asmopt_on
  1673                           
  1674                           	
  1675  04CF                     l8385:	
  1676  04CF  3001               	movlw	low(01h)
  1677  04D0  1283               	bcf	status, 5	;RP0=0, select bank0
  1678  04D1  1303               	bcf	status, 6	;RP1=0, select bank0
  1679  04D2  02B1               	subwf	(main@RoutineDelay_3939),f
  1680  04D3  1D03               	btfss	status,2
  1681  04D4  2CD6               	goto	u4831
  1682  04D5  2CD7               	goto	u4830
  1683  04D6                     u4831:
  1684  04D6  2CC8               	goto	l8383
  1685  04D7                     u4830:
  1686  04D7  2CD8               	goto	l8387
  1687                           	
  1688  04D8                     l3092:	
  1689                           	
  1690  04D8                     l8387:	
  1691  04D8  3001               	movlw	low(01h)
  1692  04D9  02A9               	subwf	(main@RequireDelay_3940),f
  1693  04DA  3000               	movlw	high(01h)
  1694  04DB  1C03               	skipc
  1695  04DC  03AA               	decf	(main@RequireDelay_3940+1),f
  1696  04DD  02AA               	subwf	(main@RequireDelay_3940+1),f
  1697  04DE  082A               	movf	(((main@RequireDelay_3940+1))),w
  1698  04DF  0429               	iorwf	(((main@RequireDelay_3940))),w
  1699  04E0  1D03               	skipz
  1700  04E1  2CE3               	goto	u4841
  1701  04E2  2CE4               	goto	u4840
  1702  04E3                     u4841:
  1703  04E3  2CC3               	goto	l8381
  1704  04E4                     u4840:
  1705  04E4  2CE5               	goto	l8389
  1706                           	
  1707  04E5                     l3093:	
  1708                           	
  1709  04E5                     l8389:	
  1710  04E5  30F4               	movlw	low(01F4h)
  1711  04E6  00AB               	movwf	(main@RequireDelay_3942)
  1712  04E7  3001               	movlw	high(01F4h)
  1713  04E8  00AC               	movwf	((main@RequireDelay_3942))+1
  1714                           	
  1715  04E9                     l3094:	
  1716  04E9  3004               	movlw	(04h)
  1717  04EA  00A3               	movwf	(??_main+0)+0
  1718  04EB  0823               	movf	(??_main+0)+0,w
  1719  04EC  00B2               	movwf	(main@RoutineDelay_3941)
  1720                           	
  1721  04ED                     l3095:	
  1722                           	opt asmopt_off
  1723  04ED  30F9               movlw	249
  1724  04EE  00A3               movwf	(??_main+0)+0,f
  1725  04EF                     u4927:
  1726  04EF  2CF0               	nop2
  1727  04F0  0BA3               decfsz	(??_main+0)+0,f
  1728  04F1  2CEF               	goto	u4927
  1729  04F2  2CF3               	nop2	;nop
  1730  04F3  2CF4               	nop2	;nop
  1731                           opt asmopt_on
  1732                           
  1733                           	
  1734  04F4                     l8391:	
  1735  04F4  3001               	movlw	low(01h)
  1736  04F5  1283               	bcf	status, 5	;RP0=0, select bank0
  1737  04F6  1303               	bcf	status, 6	;RP1=0, select bank0
  1738  04F7  02B2               	subwf	(main@RoutineDelay_3941),f
  1739  04F8  1D03               	btfss	status,2
  1740  04F9  2CFB               	goto	u4851
  1741  04FA  2CFC               	goto	u4850
  1742  04FB                     u4851:
  1743  04FB  2CED               	goto	l3095
  1744  04FC                     u4850:
  1745  04FC  2CFD               	goto	l8393
  1746                           	
  1747  04FD                     l3096:	
  1748                           	
  1749  04FD                     l8393:	
  1750  04FD  3001               	movlw	low(01h)
  1751  04FE  02AB               	subwf	(main@RequireDelay_3942),f
  1752  04FF  3000               	movlw	high(01h)
  1753  0500  1C03               	skipc
  1754  0501  03AC               	decf	(main@RequireDelay_3942+1),f
  1755  0502  02AC               	subwf	(main@RequireDelay_3942+1),f
  1756  0503  082C               	movf	(((main@RequireDelay_3942+1))),w
  1757  0504  042B               	iorwf	(((main@RequireDelay_3942))),w
  1758  0505  1D03               	skipz
  1759  0506  2D08               	goto	u4861
  1760  0507  2D09               	goto	u4860
  1761  0508                     u4861:
  1762  0508  2CE9               	goto	l3094
  1763  0509                     u4860:
  1764  0509  2D0A               	goto	l8395
  1765                           	
  1766  050A                     l3097:	
  1767                           	line	120
  1768                           	
  1769  050A                     l8395:	
  1770                           ;main.c: 120: PORTD &=~(1 << 0);
  1771  050A  30FE               	movlw	(0FEh)
  1772  050B  00A3               	movwf	(??_main+0)+0
  1773  050C  0823               	movf	(??_main+0)+0,w
  1774  050D  0588               	andwf	(8),f	;volatile
  1775                           	line	121
  1776                           	
  1777  050E                     l8397:	
  1778                           ;main.c: 121: memset(LocalArray, '\0', sizeof(LocalArray));
  1779  050E  3000               	movlw	low(0)
  1780  050F  00F0               	movwf	(?_memset)
  1781  0510  3000               	movlw	high(0)
  1782  0511  00F1               	movwf	((?_memset))+1
  1783  0512  3005               	movlw	low(05h)
  1784  0513  00F2               	movwf	0+(?_memset)+02h
  1785  0514  3000               	movlw	high(05h)
  1786  0515  00F3               	movwf	(0+(?_memset)+02h)+1
  1787  0516  303C               	movlw	(_LocalArray)&0ffh
  1788  0517  120A  158A  25E3   	fcall	_memset
              120A  118A         
  1789                           	line	122
  1790                           	
  1791  051C                     l8399:	
  1792                           ;main.c: 122: LocalCount = 0; LCD_Disp(0xC0,"                ");
  1793  051C  1283               	bcf	status, 5	;RP0=0, select bank0
  1794  051D  1303               	bcf	status, 6	;RP1=0, select bank0
  1795  051E  01BA               	clrf	(_LocalCount)
  1796                           	
  1797  051F                     l8401:	
  1798  051F  3001               	movlw	low((STR_11-__stringbase))
  1799  0520  00F7               	movwf	(?_LCD_Disp)
  1800  0521  3080               	movlw	80h
  1801  0522  00F8               	movwf	(?_LCD_Disp+1)
  1802  0523  30C0               	movlw	(0C0h)
  1803  0524  120A  158A  2694   	fcall	_LCD_Disp
              120A  118A         
  1804  0529  2B93               	goto	l8311
  1805                           	line	123
  1806                           	
  1807  052A                     l3089:	
  1808  052A  2B93               	goto	l8311
  1809                           	line	124
  1810                           	
  1811  052B                     l3083:	
  1812  052B  2B93               	goto	l8311
  1813                           	line	125
  1814                           	
  1815  052C                     l3098:	
  1816                           	line	74
  1817  052C  2B93               	goto	l8311
  1818                           	
  1819  052D                     l3099:	
  1820                           	line	126
  1821                           	
  1822  052D                     l3100:	
  1823                           	global	start
  1824  052D  120A  118A  2800   	ljmp	start
  1825                           	opt stack 0
  1826                           GLOBAL	__end_of_main
  1827  0530                     	__end_of_main:
  1828 ;; =============== function _main ends ============
  1829                           
  1830                           	signat	_main,88
  1831                           	global	_ChangePassWord
  1832                           psect	text418,local,class=CODE,delta=2
  1833                           global __ptext418
  1834  0174                     __ptext418:
  1835                           
  1836 ;; *************** function _ChangePassWord *****************
  1837 ;; Defined at:
  1838 ;;		line 129 in file "E:\pic program\Password Based Circuit Breaker\main.c"
  1839 ;; Parameters:    Size  Location     Type
  1840 ;;		None
  1841 ;; Auto vars:     Size  Location     Type
  1842 ;;  k               1    2[BANK0 ] unsigned char 
  1843 ;; Return value:  Size  Location     Type
  1844 ;;		None               void
  1845 ;; Registers used:
  1846 ;;		wreg, fsr0l, fsr0h, status,2, status,0, btemp+1, pclath, cstack
  1847 ;; Tracked objects:
  1848 ;;		On entry : 0/0
  1849 ;;		On exit  : 0/0
  1850 ;;		Unchanged: 0/0
  1851 ;; Data sizes:     COMMON   BANK0   BANK1   BANK3   BANK2
  1852 ;;      Params:         0       0       0       0       0
  1853 ;;      Locals:         0       1       0       0       0
  1854 ;;      Temps:          0       2       0       0       0
  1855 ;;      Totals:         0       3       0       0       0
  1856 ;;Total ram usage:        3 bytes
  1857 ;; Hardware stack levels used:    1
  1858 ;; Hardware stack levels required when called:    4
  1859 ;; This function calls:
  1860 ;;		_LCD_Command
  1861 ;;		_memset
  1862 ;;		_LCD_Disp
  1863 ;;		_FetchKey
  1864 ;;		_isdigit
  1865 ;;		_LCD_Write
  1866 ;;		_atoi
  1867 ;;		_eeprom_write
  1868 ;; This function is called by:
  1869 ;;		_main
  1870 ;; This function uses a non-reentrant model
  1871 ;;
  1872                           psect	text418
  1873                           	file	"E:\pic program\Password Based Circuit Breaker\main.c"
  1874                           	line	129
  1875                           	global	__size_of_ChangePassWord
  1876  0141                     	__size_of_ChangePassWord	equ	__end_of_ChangePassWord-_ChangePassWord
  1877                           	
  1878  0174                     _ChangePassWord:	
  1879                           	opt	stack 3
  1880                           ; Regs used in _ChangePassWord: [wreg-fsr0h+status,2+status,0+btemp+1+pclath+cstack]
  1881                           	line	130
  1882                           	
  1883  0174                     l8199:	
  1884                           ;main.c: 130: { LCD_Command(0x01); _delay((unsigned long)((20)*(20000000UL/4000.0)));}; 
                                 LCD_Command(0x0E);
  1885  0174  3001               	movlw	(01h)
  1886  0175  120A  158A  26C7   	fcall	_LCD_Command
              120A  118A         
  1887                           	
  1888  017A                     l8201:	
  1889                           	opt asmopt_off
  1890  017A  3082               movlw	130
  1891  017B  1283               	bcf	status, 5	;RP0=0, select bank0
  1892  017C  1303               	bcf	status, 6	;RP1=0, select bank0
  1893  017D  00A1               movwf	((??_ChangePassWord+0)+0+1),f
  1894  017E  30DD               	movlw	221
  1895  017F  00A0               movwf	((??_ChangePassWord+0)+0),f
  1896  0180                     u4937:
  1897  0180  0BA0               	decfsz	((??_ChangePassWord+0)+0),f
  1898  0181  2980               	goto	u4937
  1899  0182  0BA1               	decfsz	((??_ChangePassWord+0)+0+1),f
  1900  0183  2980               	goto	u4937
  1901  0184  2985               	nop2
  1902                           opt asmopt_on
  1903                           
  1904                           	
  1905  0185                     l8203:	
  1906  0185  300E               	movlw	(0Eh)
  1907  0186  120A  158A  26C7   	fcall	_LCD_Command
              120A  118A         
  1908                           	line	131
  1909                           	
  1910  018B                     l8205:	
  1911                           ;main.c: 131: memset(LocalArray, '\0', sizeof(LocalArray));
  1912  018B  3000               	movlw	low(0)
  1913  018C  00F0               	movwf	(?_memset)
  1914  018D  3000               	movlw	high(0)
  1915  018E  00F1               	movwf	((?_memset))+1
  1916  018F  3005               	movlw	low(05h)
  1917  0190  00F2               	movwf	0+(?_memset)+02h
  1918  0191  3000               	movlw	high(05h)
  1919  0192  00F3               	movwf	(0+(?_memset)+02h)+1
  1920  0193  303C               	movlw	(_LocalArray)&0ffh
  1921  0194  120A  158A  25E3   	fcall	_memset
              120A  118A         
  1922                           	line	132
  1923                           	
  1924  0199                     l8207:	
  1925                           ;main.c: 132: LocalCount = 0; LCD_Disp(0x80,"ENTER OLD PASWRD");
  1926  0199  1283               	bcf	status, 5	;RP0=0, select bank0
  1927  019A  1303               	bcf	status, 6	;RP1=0, select bank0
  1928  019B  01BA               	clrf	(_LocalCount)
  1929                           	
  1930  019C                     l8209:	
  1931  019C  3045               	movlw	low((STR_12-__stringbase))
  1932  019D  00F7               	movwf	(?_LCD_Disp)
  1933  019E  3080               	movlw	80h
  1934  019F  00F8               	movwf	(?_LCD_Disp+1)
  1935  01A0  3080               	movlw	(080h)
  1936  01A1  120A  158A  2694   	fcall	_LCD_Disp
              120A  118A         
  1937  01A6  29A7               	goto	l8211
  1938                           	line	134
  1939                           ;main.c: 134: do
  1940                           	
  1941  01A7                     l3103:	
  1942                           	line	136
  1943                           	
  1944  01A7                     l8211:	
  1945                           ;main.c: 135: {
  1946                           ;main.c: 136: LastDetectedKey = FetchKey(&KeyDebounceTime);
  1947  01A7  3041               	movlw	(_KeyDebounceTime)&0ffh
  1948  01A8  120A  118A  2530   	fcall	_FetchKey
              120A  118A         
  1949  01AD  1283               	bcf	status, 5	;RP0=0, select bank0
  1950  01AE  1303               	bcf	status, 6	;RP1=0, select bank0
  1951  01AF  00A0               	movwf	(??_ChangePassWord+0)+0
  1952  01B0  01A1               	clrf	(??_ChangePassWord+0)+0+1
  1953  01B1  0820               	movf	0+(??_ChangePassWord+0)+0,w
  1954  01B2  00B6               	movwf	(_LastDetectedKey)
  1955  01B3  0821               	movf	1+(??_ChangePassWord+0)+0,w
  1956  01B4  00B7               	movwf	(_LastDetectedKey+1)
  1957                           	line	137
  1958                           	
  1959  01B5                     l8213:	
  1960                           ;main.c: 137: if(isdigit(LastDetectedKey))
  1961  01B5  0836               	movf	(_LastDetectedKey),w
  1962  01B6  120A  158A  25AF   	fcall	_isdigit
              120A  118A         
  1963  01BB  1C03               	btfss	status,0
  1964  01BC  29BE               	goto	u4611
  1965  01BD  29BF               	goto	u4610
  1966  01BE                     u4611:
  1967  01BE  29DB               	goto	l8221
  1968  01BF                     u4610:
  1969                           	line	139
  1970                           	
  1971  01BF                     l8215:	
  1972                           ;main.c: 138: {
  1973                           ;main.c: 139: LocalArray[LocalCount] = LastDetectedKey;
  1974  01BF  1283               	bcf	status, 5	;RP0=0, select bank0
  1975  01C0  1303               	bcf	status, 6	;RP1=0, select bank0
  1976  01C1  0836               	movf	(_LastDetectedKey),w
  1977  01C2  00A0               	movwf	(??_ChangePassWord+0)+0
  1978  01C3  083A               	movf	(_LocalCount),w
  1979  01C4  3E3C               	addlw	_LocalArray&0ffh
  1980  01C5  0084               	movwf	fsr0
  1981  01C6  0820               	movf	(??_ChangePassWord+0)+0,w
  1982  01C7  1383               	bcf	status, 7	;select IRP bank0
  1983  01C8  0080               	movwf	indf
  1984                           	line	140
  1985                           	
  1986  01C9                     l8217:	
  1987                           ;main.c: 140: LCD_Write(0xC0 + LocalCount, LastDetectedKey);
  1988  01C9  0836               	movf	(_LastDetectedKey),w
  1989  01CA  00A0               	movwf	(??_ChangePassWord+0)+0
  1990  01CB  0820               	movf	(??_ChangePassWord+0)+0,w
  1991  01CC  00F4               	movwf	(?_LCD_Write)
  1992  01CD  083A               	movf	(_LocalCount),w
  1993  01CE  3EC0               	addlw	0C0h
  1994  01CF  120A  158A  271E   	fcall	_LCD_Write
              120A  118A         
  1995                           	line	141
  1996                           	
  1997  01D4                     l8219:	
  1998                           ;main.c: 141: LocalCount++;
  1999  01D4  3001               	movlw	(01h)
  2000  01D5  1283               	bcf	status, 5	;RP0=0, select bank0
  2001  01D6  1303               	bcf	status, 6	;RP1=0, select bank0
  2002  01D7  00A0               	movwf	(??_ChangePassWord+0)+0
  2003  01D8  0820               	movf	(??_ChangePassWord+0)+0,w
  2004  01D9  07BA               	addwf	(_LocalCount),f
  2005  01DA  29DB               	goto	l8221
  2006                           	line	142
  2007                           	
  2008  01DB                     l3104:	
  2009                           	line	144
  2010                           	
  2011  01DB                     l8221:	
  2012                           ;main.c: 142: }
  2013                           ;main.c: 143: }
  2014                           ;main.c: 144: while(LocalCount != 4); LocalCount = 0;
  2015  01DB  1283               	bcf	status, 5	;RP0=0, select bank0
  2016  01DC  1303               	bcf	status, 6	;RP1=0, select bank0
  2017  01DD  083A               	movf	(_LocalCount),w
  2018  01DE  3A04               	xorlw	04h
  2019  01DF  1D03               	skipz
  2020  01E0  29E2               	goto	u4621
  2021  01E1  29E3               	goto	u4620
  2022  01E2                     u4621:
  2023  01E2  29A7               	goto	l8211
  2024  01E3                     u4620:
  2025                           	
  2026  01E3                     l3105:	
  2027  01E3  01BA               	clrf	(_LocalCount)
  2028                           	line	145
  2029                           	
  2030  01E4                     l8223:	
  2031                           ;main.c: 145: DetectedPassWord = atoi((char*)LocalArray);
  2032  01E4  303C               	movlw	(_LocalArray)&0ffh
  2033  01E5  120A  158A  2778   	fcall	_atoi
              120A  118A         
  2034  01EA  0877               	movf	(1+(?_atoi)),w
  2035  01EB  1283               	bcf	status, 5	;RP0=0, select bank0
  2036  01EC  1303               	bcf	status, 6	;RP1=0, select bank0
  2037  01ED  01B5               	clrf	(_DetectedPassWord+1)
  2038  01EE  07B5               	addwf	(_DetectedPassWord+1)
  2039  01EF  0876               	movf	(0+(?_atoi)),w
  2040  01F0  01B4               	clrf	(_DetectedPassWord)
  2041  01F1  07B4               	addwf	(_DetectedPassWord)
  2042                           
  2043                           	line	146
  2044                           ;main.c: 146: memset(LocalArray, '\0', sizeof(LocalArray) - 1);
  2045  01F2  3000               	movlw	low(0)
  2046  01F3  00F0               	movwf	(?_memset)
  2047  01F4  3000               	movlw	high(0)
  2048  01F5  00F1               	movwf	((?_memset))+1
  2049  01F6  3004               	movlw	low(04h)
  2050  01F7  00F2               	movwf	0+(?_memset)+02h
  2051  01F8  3000               	movlw	high(04h)
  2052  01F9  00F3               	movwf	(0+(?_memset)+02h)+1
  2053  01FA  303C               	movlw	(_LocalArray)&0ffh
  2054  01FB  120A  158A  25E3   	fcall	_memset
              120A  118A         
  2055                           	line	148
  2056                           	
  2057  0200                     l8225:	
  2058                           ;main.c: 148: if(DetectedPassWord == LastPassWord || DetectedPassWord == 2205)
  2059  0200  1283               	bcf	status, 5	;RP0=0, select bank0
  2060  0201  1303               	bcf	status, 6	;RP1=0, select bank0
  2061  0202  0839               	movf	(_LastPassWord+1),w
  2062  0203  0635               	xorwf	(_DetectedPassWord+1),w
  2063  0204  1D03               	skipz
  2064  0205  2A08               	goto	u4635
  2065  0206  0838               	movf	(_LastPassWord),w
  2066  0207  0634               	xorwf	(_DetectedPassWord),w
  2067  0208                     u4635:
  2068                           
  2069  0208  1903               	skipnz
  2070  0209  2A0B               	goto	u4631
  2071  020A  2A0C               	goto	u4630
  2072  020B                     u4631:
  2073  020B  2A17               	goto	l8229
  2074  020C                     u4630:
  2075                           	
  2076  020C                     l8227:	
  2077  020C  3008               	movlw	high(089Dh)
  2078  020D  0635               	xorwf	(_DetectedPassWord+1),w
  2079  020E  1D03               	skipz
  2080  020F  2A12               	goto	u4645
  2081  0210  309D               	movlw	low(089Dh)
  2082  0211  0634               	xorwf	(_DetectedPassWord),w
  2083  0212                     u4645:
  2084                           
  2085  0212  1D03               	skipz
  2086  0213  2A15               	goto	u4641
  2087  0214  2A16               	goto	u4640
  2088  0215                     u4641:
  2089  0215  2AB4               	goto	l3114
  2090  0216                     u4640:
  2091  0216  2A17               	goto	l8229
  2092                           	
  2093  0217                     l3108:	
  2094                           	line	150
  2095                           	
  2096  0217                     l8229:	
  2097                           ;main.c: 149: {
  2098                           ;main.c: 150: LCD_Disp(0x80,"ENTER NEW PASWRD");
  2099  0217  3056               	movlw	low((STR_13-__stringbase))
  2100  0218  00F7               	movwf	(?_LCD_Disp)
  2101  0219  3080               	movlw	80h
  2102  021A  00F8               	movwf	(?_LCD_Disp+1)
  2103  021B  3080               	movlw	(080h)
  2104  021C  120A  158A  2694   	fcall	_LCD_Disp
              120A  118A         
  2105                           	line	151
  2106                           ;main.c: 151: LCD_Disp(0xC0,"                ");
  2107  0221  3001               	movlw	low((STR_14-__stringbase))
  2108  0222  00F7               	movwf	(?_LCD_Disp)
  2109  0223  3080               	movlw	80h
  2110  0224  00F8               	movwf	(?_LCD_Disp+1)
  2111  0225  30C0               	movlw	(0C0h)
  2112  0226  120A  158A  2694   	fcall	_LCD_Disp
              120A  118A         
  2113  022B  2A2C               	goto	l8231
  2114                           	line	152
  2115                           ;main.c: 152: do
  2116                           	
  2117  022C                     l3109:	
  2118                           	line	154
  2119                           	
  2120  022C                     l8231:	
  2121                           ;main.c: 153: {
  2122                           ;main.c: 154: LastDetectedKey = FetchKey(&KeyDebounceTime);
  2123  022C  3041               	movlw	(_KeyDebounceTime)&0ffh
  2124  022D  120A  118A  2530   	fcall	_FetchKey
              120A  118A         
  2125  0232  1283               	bcf	status, 5	;RP0=0, select bank0
  2126  0233  1303               	bcf	status, 6	;RP1=0, select bank0
  2127  0234  00A0               	movwf	(??_ChangePassWord+0)+0
  2128  0235  01A1               	clrf	(??_ChangePassWord+0)+0+1
  2129  0236  0820               	movf	0+(??_ChangePassWord+0)+0,w
  2130  0237  00B6               	movwf	(_LastDetectedKey)
  2131  0238  0821               	movf	1+(??_ChangePassWord+0)+0,w
  2132  0239  00B7               	movwf	(_LastDetectedKey+1)
  2133                           	line	155
  2134                           	
  2135  023A                     l8233:	
  2136                           ;main.c: 155: if(isdigit(LastDetectedKey))
  2137  023A  0836               	movf	(_LastDetectedKey),w
  2138  023B  120A  158A  25AF   	fcall	_isdigit
              120A  118A         
  2139  0240  1C03               	btfss	status,0
  2140  0241  2A43               	goto	u4651
  2141  0242  2A44               	goto	u4650
  2142  0243                     u4651:
  2143  0243  2A60               	goto	l8241
  2144  0244                     u4650:
  2145                           	line	157
  2146                           	
  2147  0244                     l8235:	
  2148                           ;main.c: 156: {
  2149                           ;main.c: 157: LocalArray[LocalCount] = LastDetectedKey;
  2150  0244  1283               	bcf	status, 5	;RP0=0, select bank0
  2151  0245  1303               	bcf	status, 6	;RP1=0, select bank0
  2152  0246  0836               	movf	(_LastDetectedKey),w
  2153  0247  00A0               	movwf	(??_ChangePassWord+0)+0
  2154  0248  083A               	movf	(_LocalCount),w
  2155  0249  3E3C               	addlw	_LocalArray&0ffh
  2156  024A  0084               	movwf	fsr0
  2157  024B  0820               	movf	(??_ChangePassWord+0)+0,w
  2158  024C  1383               	bcf	status, 7	;select IRP bank0
  2159  024D  0080               	movwf	indf
  2160                           	line	158
  2161                           	
  2162  024E                     l8237:	
  2163                           ;main.c: 158: LCD_Write(0xC0 + LocalCount, LastDetectedKey);
  2164  024E  0836               	movf	(_LastDetectedKey),w
  2165  024F  00A0               	movwf	(??_ChangePassWord+0)+0
  2166  0250  0820               	movf	(??_ChangePassWord+0)+0,w
  2167  0251  00F4               	movwf	(?_LCD_Write)
  2168  0252  083A               	movf	(_LocalCount),w
  2169  0253  3EC0               	addlw	0C0h
  2170  0254  120A  158A  271E   	fcall	_LCD_Write
              120A  118A         
  2171                           	line	159
  2172                           	
  2173  0259                     l8239:	
  2174                           ;main.c: 159: LocalCount++;
  2175  0259  3001               	movlw	(01h)
  2176  025A  1283               	bcf	status, 5	;RP0=0, select bank0
  2177  025B  1303               	bcf	status, 6	;RP1=0, select bank0
  2178  025C  00A0               	movwf	(??_ChangePassWord+0)+0
  2179  025D  0820               	movf	(??_ChangePassWord+0)+0,w
  2180  025E  07BA               	addwf	(_LocalCount),f
  2181  025F  2A60               	goto	l8241
  2182                           	line	160
  2183                           	
  2184  0260                     l3110:	
  2185                           	line	162
  2186                           	
  2187  0260                     l8241:	
  2188                           ;main.c: 160: }
  2189                           ;main.c: 161: }
  2190                           ;main.c: 162: while(LocalCount != 4); LocalCount = 0;
  2191  0260  1283               	bcf	status, 5	;RP0=0, select bank0
  2192  0261  1303               	bcf	status, 6	;RP1=0, select bank0
  2193  0262  083A               	movf	(_LocalCount),w
  2194  0263  3A04               	xorlw	04h
  2195  0264  1D03               	skipz
  2196  0265  2A67               	goto	u4661
  2197  0266  2A68               	goto	u4660
  2198  0267                     u4661:
  2199  0267  2A2C               	goto	l8231
  2200  0268                     u4660:
  2201                           	
  2202  0268                     l3111:	
  2203  0268  01BA               	clrf	(_LocalCount)
  2204                           	line	164
  2205                           ;main.c: 164: for(char k = 0; k < 4; k++)
  2206  0269  01A2               	clrf	(ChangePassWord@k)
  2207                           	
  2208  026A                     l8243:	
  2209  026A  3004               	movlw	(04h)
  2210  026B  0222               	subwf	(ChangePassWord@k),w
  2211  026C  1C03               	skipc
  2212  026D  2A6F               	goto	u4671
  2213  026E  2A70               	goto	u4670
  2214  026F                     u4671:
  2215  026F  2A72               	goto	l8247
  2216  0270                     u4670:
  2217  0270  2A8D               	goto	l8253
  2218                           	
  2219  0271                     l8245:	
  2220  0271  2A8D               	goto	l8253
  2221                           	line	165
  2222                           	
  2223  0272                     l3112:	
  2224                           	
  2225  0272                     l8247:	
  2226                           ;main.c: 165: eeprom_write(0x00 + k, LocalArray[k]);
  2227  0272  0822               	movf	(ChangePassWord@k),w
  2228  0273  3E3C               	addlw	_LocalArray&0ffh
  2229  0274  0084               	movwf	fsr0
  2230  0275  1383               	bcf	status, 7	;select IRP bank0
  2231  0276  0800               	movf	indf,w
  2232  0277  00A0               	movwf	(??_ChangePassWord+0)+0
  2233  0278  0820               	movf	(??_ChangePassWord+0)+0,w
  2234  0279  00F0               	movwf	(?_eeprom_write)
  2235  027A  0822               	movf	(ChangePassWord@k),w
  2236  027B  120A  158A  2631   	fcall	_eeprom_write
              120A  118A         
  2237                           	line	164
  2238                           	
  2239  0280                     l8249:	
  2240  0280  3001               	movlw	(01h)
  2241  0281  1283               	bcf	status, 5	;RP0=0, select bank0
  2242  0282  1303               	bcf	status, 6	;RP1=0, select bank0
  2243  0283  00A0               	movwf	(??_ChangePassWord+0)+0
  2244  0284  0820               	movf	(??_ChangePassWord+0)+0,w
  2245  0285  07A2               	addwf	(ChangePassWord@k),f
  2246                           	
  2247  0286                     l8251:	
  2248  0286  3004               	movlw	(04h)
  2249  0287  0222               	subwf	(ChangePassWord@k),w
  2250  0288  1C03               	skipc
  2251  0289  2A8B               	goto	u4681
  2252  028A  2A8C               	goto	u4680
  2253  028B                     u4681:
  2254  028B  2A72               	goto	l8247
  2255  028C                     u4680:
  2256  028C  2A8D               	goto	l8253
  2257                           	
  2258  028D                     l3113:	
  2259                           	line	166
  2260                           	
  2261  028D                     l8253:	
  2262                           ;main.c: 166: LastPassWord = atoi((char*)LocalArray);
  2263  028D  303C               	movlw	(_LocalArray)&0ffh
  2264  028E  120A  158A  2778   	fcall	_atoi
              120A  118A         
  2265  0293  0877               	movf	(1+(?_atoi)),w
  2266  0294  1283               	bcf	status, 5	;RP0=0, select bank0
  2267  0295  1303               	bcf	status, 6	;RP1=0, select bank0
  2268  0296  01B9               	clrf	(_LastPassWord+1)
  2269  0297  07B9               	addwf	(_LastPassWord+1)
  2270  0298  0876               	movf	(0+(?_atoi)),w
  2271  0299  01B8               	clrf	(_LastPassWord)
  2272  029A  07B8               	addwf	(_LastPassWord)
  2273                           
  2274                           	line	167
  2275                           ;main.c: 167: memset(LocalArray, '\0', sizeof(LocalArray));
  2276  029B  3000               	movlw	low(0)
  2277  029C  00F0               	movwf	(?_memset)
  2278  029D  3000               	movlw	high(0)
  2279  029E  00F1               	movwf	((?_memset))+1
  2280  029F  3005               	movlw	low(05h)
  2281  02A0  00F2               	movwf	0+(?_memset)+02h
  2282  02A1  3000               	movlw	high(05h)
  2283  02A2  00F3               	movwf	(0+(?_memset)+02h)+1
  2284  02A3  303C               	movlw	(_LocalArray)&0ffh
  2285  02A4  120A  158A  25E3   	fcall	_memset
              120A  118A         
  2286                           	line	168
  2287                           	
  2288  02A9                     l8255:	
  2289                           ;main.c: 168: LCD_Disp(0xC0,"                ");
  2290  02A9  3001               	movlw	low((STR_15-__stringbase))
  2291  02AA  00F7               	movwf	(?_LCD_Disp)
  2292  02AB  3080               	movlw	80h
  2293  02AC  00F8               	movwf	(?_LCD_Disp+1)
  2294  02AD  30C0               	movlw	(0C0h)
  2295  02AE  120A  158A  2694   	fcall	_LCD_Disp
              120A  118A         
  2296  02B3  2AB4               	goto	l3114
  2297                           	line	169
  2298                           	
  2299  02B4                     l3106:	
  2300                           	line	170
  2301                           	
  2302  02B4                     l3114:	
  2303  02B4  0008               	return
  2304                           	opt stack 0
  2305                           GLOBAL	__end_of_ChangePassWord
  2306  02B5                     	__end_of_ChangePassWord:
  2307 ;; =============== function _ChangePassWord ends ============
  2308                           
  2309                           	signat	_ChangePassWord,88
  2310                           	global	_LCD_Disp
  2311                           psect	text419,local,class=CODE,delta=2
  2312                           global __ptext419
  2313  0E94                     __ptext419:
  2314                           
  2315 ;; *************** function _LCD_Disp *****************
  2316 ;; Defined at:
  2317 ;;		line 56 in file "E:\pic program\Password Based Circuit Breaker\lcd.c"
  2318 ;; Parameters:    Size  Location     Type
  2319 ;;  DisplayAddre    1    wreg     unsigned char 
  2320 ;;  DisplayData     2    7[COMMON] PTR const unsigned char 
  2321 ;;		 -> STR_15(17), STR_14(17), STR_13(17), STR_12(17), 
  2322 ;;		 -> STR_11(17), STR_10(17), STR_9(17), STR_8(17), 
  2323 ;;		 -> STR_7(17), STR_6(16), STR_5(15), STR_4(17), 
  2324 ;;		 -> STR_3(17), LCD_Float@LocalArray(10), LCD_Decimal@LocalArray(10), STR_2(17), 
  2325 ;;		 -> STR_1(17), 
  2326 ;; Auto vars:     Size  Location     Type
  2327 ;;  DisplayAddre    1   10[COMMON] unsigned char 
  2328 ;; Return value:  Size  Location     Type
  2329 ;;		None               void
  2330 ;; Registers used:
  2331 ;;		wreg, fsr0l, fsr0h, status,2, status,0, btemp+1, pclath, cstack
  2332 ;; Tracked objects:
  2333 ;;		On entry : 0/0
  2334 ;;		On exit  : 0/0
  2335 ;;		Unchanged: 0/0
  2336 ;; Data sizes:     COMMON   BANK0   BANK1   BANK3   BANK2
  2337 ;;      Params:         2       0       0       0       0
  2338 ;;      Locals:         1       0       0       0       0
  2339 ;;      Temps:          1       0       0       0       0
  2340 ;;      Totals:         4       0       0       0       0
  2341 ;;Total ram usage:        4 bytes
  2342 ;; Hardware stack levels used:    1
  2343 ;; Hardware stack levels required when called:    3
  2344 ;; This function calls:
  2345 ;;		_LCD_Write
  2346 ;; This function is called by:
  2347 ;;		_main
  2348 ;;		_ChangePassWord
  2349 ;;		_RTC_Keypad
  2350 ;;		_LCD_Decimal
  2351 ;;		_LCD_Float
  2352 ;; This function uses a non-reentrant model
  2353 ;;
  2354                           psect	text419
  2355                           	file	"E:\pic program\Password Based Circuit Breaker\lcd.c"
  2356                           	line	56
  2357                           	global	__size_of_LCD_Disp
  2358  0033                     	__size_of_LCD_Disp	equ	__end_of_LCD_Disp-_LCD_Disp
  2359                           	
  2360  0E94                     _LCD_Disp:	
  2361                           	opt	stack 3
  2362                           ; Regs used in _LCD_Disp: [wreg-fsr0h+status,2+status,0+btemp+1+pclath+cstack]
  2363                           ;LCD_Disp@DisplayAddress stored from wreg
  2364  0E94  00FA               	movwf	(LCD_Disp@DisplayAddress)
  2365                           	line	57
  2366                           	
  2367  0E95                     l8189:	
  2368                           ;lcd.c: 57: while(*DisplayData) LCD_Write(DisplayAddress++, *DisplayData++);
  2369  0E95  2EB5               	goto	l8197
  2370                           	
  2371  0E96                     l2306:	
  2372                           	
  2373  0E96                     l8191:	
  2374  0E96  0878               	movf	(LCD_Disp@DisplayData+1),w
  2375  0E97  1283               	bcf	status, 5	;RP0=0, select bank0
  2376  0E98  1303               	bcf	status, 6	;RP1=0, select bank0
  2377  0E99  00FF               	movwf	btemp+1
  2378  0E9A  0877               	movf	(LCD_Disp@DisplayData),w
  2379  0E9B  0084               	movwf	fsr0
  2380  0E9C  120A  118A  2003   	fcall	stringtab
              120A  158A         
  2381  0EA1  00F9               	movwf	(??_LCD_Disp+0)+0
  2382  0EA2  0879               	movf	(??_LCD_Disp+0)+0,w
  2383  0EA3  00F4               	movwf	(?_LCD_Write)
  2384  0EA4  087A               	movf	(LCD_Disp@DisplayAddress),w
  2385  0EA5  120A  158A  271E   	fcall	_LCD_Write
              120A  158A         
  2386                           	
  2387  0EAA                     l8193:	
  2388  0EAA  3001               	movlw	low(01h)
  2389  0EAB  07F7               	addwf	(LCD_Disp@DisplayData),f
  2390  0EAC  1803               	skipnc
  2391  0EAD  0AF8               	incf	(LCD_Disp@DisplayData+1),f
  2392  0EAE  3000               	movlw	high(01h)
  2393  0EAF  07F8               	addwf	(LCD_Disp@DisplayData+1),f
  2394                           	
  2395  0EB0                     l8195:	
  2396  0EB0  3001               	movlw	(01h)
  2397  0EB1  00F9               	movwf	(??_LCD_Disp+0)+0
  2398  0EB2  0879               	movf	(??_LCD_Disp+0)+0,w
  2399  0EB3  07FA               	addwf	(LCD_Disp@DisplayAddress),f
  2400  0EB4  2EB5               	goto	l8197
  2401                           	
  2402  0EB5                     l2305:	
  2403                           	
  2404  0EB5                     l8197:	
  2405  0EB5  0878               	movf	(LCD_Disp@DisplayData+1),w
  2406  0EB6  1283               	bcf	status, 5	;RP0=0, select bank0
  2407  0EB7  1303               	bcf	status, 6	;RP1=0, select bank0
  2408  0EB8  00FF               	movwf	btemp+1
  2409  0EB9  0877               	movf	(LCD_Disp@DisplayData),w
  2410  0EBA  0084               	movwf	fsr0
  2411  0EBB  120A  118A  2003   	fcall	stringtab
              120A  158A         
  2412  0EC0  3800               	iorlw	0
  2413  0EC1  1D03               	skipz
  2414  0EC2  2EC4               	goto	u4601
  2415  0EC3  2EC5               	goto	u4600
  2416  0EC4                     u4601:
  2417  0EC4  2E96               	goto	l8191
  2418  0EC5                     u4600:
  2419  0EC5  2EC6               	goto	l2308
  2420                           	
  2421  0EC6                     l2307:	
  2422                           	line	58
  2423                           	
  2424  0EC6                     l2308:	
  2425  0EC6  0008               	return
  2426                           	opt stack 0
  2427                           GLOBAL	__end_of_LCD_Disp
  2428  0EC7                     	__end_of_LCD_Disp:
  2429 ;; =============== function _LCD_Disp ends ============
  2430                           
  2431                           	signat	_LCD_Disp,8312
  2432                           	global	_LCD_Initialize
  2433                           psect	text420,local,class=CODE,delta=2
  2434                           global __ptext420
  2435  00E3                     __ptext420:
  2436                           
  2437 ;; *************** function _LCD_Initialize *****************
  2438 ;; Defined at:
  2439 ;;		line 14 in file "E:\pic program\Password Based Circuit Breaker\lcd.c"
  2440 ;; Parameters:    Size  Location     Type
  2441 ;;		None
  2442 ;; Auto vars:     Size  Location     Type
  2443 ;;		None
  2444 ;; Return value:  Size  Location     Type
  2445 ;;		None               void
  2446 ;; Registers used:
  2447 ;;		wreg, status,2, status,0, pclath, cstack
  2448 ;; Tracked objects:
  2449 ;;		On entry : 0/0
  2450 ;;		On exit  : 0/0
  2451 ;;		Unchanged: 0/0
  2452 ;; Data sizes:     COMMON   BANK0   BANK1   BANK3   BANK2
  2453 ;;      Params:         0       0       0       0       0
  2454 ;;      Locals:         0       0       0       0       0
  2455 ;;      Temps:          2       0       0       0       0
  2456 ;;      Totals:         2       0       0       0       0
  2457 ;;Total ram usage:        2 bytes
  2458 ;; Hardware stack levels used:    1
  2459 ;; Hardware stack levels required when called:    2
  2460 ;; This function calls:
  2461 ;;		_LCD_Command
  2462 ;; This function is called by:
  2463 ;;		_main
  2464 ;; This function uses a non-reentrant model
  2465 ;;
  2466                           psect	text420
  2467                           	file	"E:\pic program\Password Based Circuit Breaker\lcd.c"
  2468                           	line	14
  2469                           	global	__size_of_LCD_Initialize
  2470  0091                     	__size_of_LCD_Initialize	equ	__end_of_LCD_Initialize-_LCD_Initialize
  2471                           	
  2472  00E3                     _LCD_Initialize:	
  2473                           	opt	stack 5
  2474                           ; Regs used in _LCD_Initialize: [wreg+status,2+status,0+pclath+cstack]
  2475                           	line	15
  2476                           	
  2477  00E3                     l8145:	
  2478                           ;lcd.c: 15: TRISB &=~ ((1 << 3) | (1 << 2) | (1 << 1) | (1 << 0));
  2479  00E3  30F0               	movlw	(0F0h)
  2480  00E4  00F4               	movwf	(??_LCD_Initialize+0)+0
  2481  00E5  0874               	movf	(??_LCD_Initialize+0)+0,w
  2482  00E6  1683               	bsf	status, 5	;RP0=1, select bank1
  2483  00E7  1303               	bcf	status, 6	;RP1=0, select bank1
  2484  00E8  0586               	andwf	(134)^080h,f	;volatile
  2485                           	line	16
  2486                           ;lcd.c: 16: TRISB &=~ ((1 << 5) | (1 << 4));
  2487  00E9  30CF               	movlw	(0CFh)
  2488  00EA  00F4               	movwf	(??_LCD_Initialize+0)+0
  2489  00EB  0874               	movf	(??_LCD_Initialize+0)+0,w
  2490  00EC  0586               	andwf	(134)^080h,f	;volatile
  2491                           	line	18
  2492                           	
  2493  00ED                     l8147:	
  2494                           ;lcd.c: 18: _delay((unsigned long)((4.5)*(20000000UL/4000.0)));
  2495                           	opt asmopt_off
  2496  00ED  301E               movlw	30
  2497  00EE  00F5               movwf	((??_LCD_Initialize+0)+0+1),f
  2498  00EF  3037               	movlw	55
  2499  00F0  00F4               movwf	((??_LCD_Initialize+0)+0),f
  2500  00F1                     u4947:
  2501  00F1  0BF4               	decfsz	((??_LCD_Initialize+0)+0),f
  2502  00F2  28F1               	goto	u4947
  2503  00F3  0BF5               	decfsz	((??_LCD_Initialize+0)+0+1),f
  2504  00F4  28F1               	goto	u4947
  2505                           opt asmopt_on
  2506                           
  2507                           	line	19
  2508                           	
  2509  00F5                     l8149:	
  2510                           ;lcd.c: 19: LCD_Command(0x03);
  2511  00F5  3003               	movlw	(03h)
  2512  00F6  120A  158A  26C7   	fcall	_LCD_Command
              120A  118A         
  2513                           	line	20
  2514                           	
  2515  00FB                     l8151:	
  2516                           ;lcd.c: 20: _delay((unsigned long)((4.5)*(20000000UL/4000.0)));
  2517                           	opt asmopt_off
  2518  00FB  301E               movlw	30
  2519  00FC  00F5               movwf	((??_LCD_Initialize+0)+0+1),f
  2520  00FD  3037               	movlw	55
  2521  00FE  00F4               movwf	((??_LCD_Initialize+0)+0),f
  2522  00FF                     u4957:
  2523  00FF  0BF4               	decfsz	((??_LCD_Initialize+0)+0),f
  2524  0100  28FF               	goto	u4957
  2525  0101  0BF5               	decfsz	((??_LCD_Initialize+0)+0+1),f
  2526  0102  28FF               	goto	u4957
  2527                           opt asmopt_on
  2528                           
  2529                           	line	21
  2530                           	
  2531  0103                     l8153:	
  2532                           ;lcd.c: 21: LCD_Command(0x03);
  2533  0103  3003               	movlw	(03h)
  2534  0104  120A  158A  26C7   	fcall	_LCD_Command
              120A  118A         
  2535                           	line	22
  2536                           	
  2537  0109                     l8155:	
  2538                           ;lcd.c: 22: _delay((unsigned long)((4.5)*(20000000UL/4000.0)));
  2539                           	opt asmopt_off
  2540  0109  301E               movlw	30
  2541  010A  00F5               movwf	((??_LCD_Initialize+0)+0+1),f
  2542  010B  3037               	movlw	55
  2543  010C  00F4               movwf	((??_LCD_Initialize+0)+0),f
  2544  010D                     u4967:
  2545  010D  0BF4               	decfsz	((??_LCD_Initialize+0)+0),f
  2546  010E  290D               	goto	u4967
  2547  010F  0BF5               	decfsz	((??_LCD_Initialize+0)+0+1),f
  2548  0110  290D               	goto	u4967
  2549                           opt asmopt_on
  2550                           
  2551                           	line	23
  2552                           	
  2553  0111                     l8157:	
  2554                           ;lcd.c: 23: LCD_Command(0x03);
  2555  0111  3003               	movlw	(03h)
  2556  0112  120A  158A  26C7   	fcall	_LCD_Command
              120A  118A         
  2557                           	line	24
  2558                           	
  2559  0117                     l8159:	
  2560                           ;lcd.c: 24: _delay((unsigned long)((150)*(20000000UL/4000000.0)));
  2561                           	opt asmopt_off
  2562  0117  30F9               movlw	249
  2563  0118  00F4               movwf	(??_LCD_Initialize+0)+0,f
  2564  0119                     u4977:
  2565  0119  0BF4               decfsz	(??_LCD_Initialize+0)+0,f
  2566  011A  2919               	goto	u4977
  2567  011B  291C               	nop2	;nop
  2568                           opt asmopt_on
  2569                           
  2570                           	line	25
  2571                           	
  2572  011C                     l8161:	
  2573                           ;lcd.c: 25: LCD_Command(0x02);
  2574  011C  3002               	movlw	(02h)
  2575  011D  120A  158A  26C7   	fcall	_LCD_Command
              120A  118A         
  2576                           	line	26
  2577                           	
  2578  0122                     l8163:	
  2579                           ;lcd.c: 26: _delay((unsigned long)((150)*(20000000UL/4000000.0)));
  2580                           	opt asmopt_off
  2581  0122  30F9               movlw	249
  2582  0123  00F4               movwf	(??_LCD_Initialize+0)+0,f
  2583  0124                     u4987:
  2584  0124  0BF4               decfsz	(??_LCD_Initialize+0)+0,f
  2585  0125  2924               	goto	u4987
  2586  0126  2927               	nop2	;nop
  2587                           opt asmopt_on
  2588                           
  2589                           	line	27
  2590                           	
  2591  0127                     l8165:	
  2592                           ;lcd.c: 27: LCD_Command(0x28);
  2593  0127  3028               	movlw	(028h)
  2594  0128  120A  158A  26C7   	fcall	_LCD_Command
              120A  118A         
  2595                           	line	28
  2596                           	
  2597  012D                     l8167:	
  2598                           ;lcd.c: 28: _delay((unsigned long)((4.5)*(20000000UL/4000.0)));
  2599                           	opt asmopt_off
  2600  012D  301E               movlw	30
  2601  012E  00F5               movwf	((??_LCD_Initialize+0)+0+1),f
  2602  012F  3037               	movlw	55
  2603  0130  00F4               movwf	((??_LCD_Initialize+0)+0),f
  2604  0131                     u4997:
  2605  0131  0BF4               	decfsz	((??_LCD_Initialize+0)+0),f
  2606  0132  2931               	goto	u4997
  2607  0133  0BF5               	decfsz	((??_LCD_Initialize+0)+0+1),f
  2608  0134  2931               	goto	u4997
  2609                           opt asmopt_on
  2610                           
  2611                           	line	29
  2612                           	
  2613  0135                     l8169:	
  2614                           ;lcd.c: 29: LCD_Command(0x28);
  2615  0135  3028               	movlw	(028h)
  2616  0136  120A  158A  26C7   	fcall	_LCD_Command
              120A  118A         
  2617                           	line	30
  2618                           	
  2619  013B                     l8171:	
  2620                           ;lcd.c: 30: _delay((unsigned long)((4.5)*(20000000UL/4000.0)));
  2621                           	opt asmopt_off
  2622  013B  301E               movlw	30
  2623  013C  00F5               movwf	((??_LCD_Initialize+0)+0+1),f
  2624  013D  3037               	movlw	55
  2625  013E  00F4               movwf	((??_LCD_Initialize+0)+0),f
  2626  013F                     u5007:
  2627  013F  0BF4               	decfsz	((??_LCD_Initialize+0)+0),f
  2628  0140  293F               	goto	u5007
  2629  0141  0BF5               	decfsz	((??_LCD_Initialize+0)+0+1),f
  2630  0142  293F               	goto	u5007
  2631                           opt asmopt_on
  2632                           
  2633                           	line	31
  2634                           	
  2635  0143                     l8173:	
  2636                           ;lcd.c: 31: LCD_Command(0x28);
  2637  0143  3028               	movlw	(028h)
  2638  0144  120A  158A  26C7   	fcall	_LCD_Command
              120A  118A         
  2639                           	line	32
  2640                           	
  2641  0149                     l8175:	
  2642                           ;lcd.c: 32: _delay((unsigned long)((150)*(20000000UL/4000000.0)));
  2643                           	opt asmopt_off
  2644  0149  30F9               movlw	249
  2645  014A  00F4               movwf	(??_LCD_Initialize+0)+0,f
  2646  014B                     u5017:
  2647  014B  0BF4               decfsz	(??_LCD_Initialize+0)+0,f
  2648  014C  294B               	goto	u5017
  2649  014D  294E               	nop2	;nop
  2650                           opt asmopt_on
  2651                           
  2652                           	line	33
  2653                           	
  2654  014E                     l8177:	
  2655                           ;lcd.c: 33: LCD_Command(0x06);
  2656  014E  3006               	movlw	(06h)
  2657  014F  120A  158A  26C7   	fcall	_LCD_Command
              120A  118A         
  2658                           	line	34
  2659                           	
  2660  0154                     l8179:	
  2661                           ;lcd.c: 34: _delay((unsigned long)((150)*(20000000UL/4000000.0)));
  2662                           	opt asmopt_off
  2663  0154  30F9               movlw	249
  2664  0155  00F4               movwf	(??_LCD_Initialize+0)+0,f
  2665  0156                     u5027:
  2666  0156  0BF4               decfsz	(??_LCD_Initialize+0)+0,f
  2667  0157  2956               	goto	u5027
  2668  0158  2959               	nop2	;nop
  2669                           opt asmopt_on
  2670                           
  2671                           	line	35
  2672                           	
  2673  0159                     l8181:	
  2674                           ;lcd.c: 35: LCD_Command(0x0C);
  2675  0159  300C               	movlw	(0Ch)
  2676  015A  120A  158A  26C7   	fcall	_LCD_Command
              120A  118A         
  2677                           	line	36
  2678                           	
  2679  015F                     l8183:	
  2680                           ;lcd.c: 36: _delay((unsigned long)((150)*(20000000UL/4000000.0)));
  2681                           	opt asmopt_off
  2682  015F  30F9               movlw	249
  2683  0160  00F4               movwf	(??_LCD_Initialize+0)+0,f
  2684  0161                     u5037:
  2685  0161  0BF4               decfsz	(??_LCD_Initialize+0)+0,f
  2686  0162  2961               	goto	u5037
  2687  0163  2964               	nop2	;nop
  2688                           opt asmopt_on
  2689                           
  2690                           	line	37
  2691                           	
  2692  0164                     l8185:	
  2693                           ;lcd.c: 37: { LCD_Command(0x01); _delay((unsigned long)((20)*(20000000UL/4000.0)));};
  2694  0164  3001               	movlw	(01h)
  2695  0165  120A  158A  26C7   	fcall	_LCD_Command
              120A  118A         
  2696                           	
  2697  016A                     l8187:	
  2698                           	opt asmopt_off
  2699  016A  3082               movlw	130
  2700  016B  00F5               movwf	((??_LCD_Initialize+0)+0+1),f
  2701  016C  30DD               	movlw	221
  2702  016D  00F4               movwf	((??_LCD_Initialize+0)+0),f
  2703  016E                     u5047:
  2704  016E  0BF4               	decfsz	((??_LCD_Initialize+0)+0),f
  2705  016F  296E               	goto	u5047
  2706  0170  0BF5               	decfsz	((??_LCD_Initialize+0)+0+1),f
  2707  0171  296E               	goto	u5047
  2708  0172  2973               	nop2
  2709                           opt asmopt_on
  2710                           
  2711                           	line	38
  2712                           	
  2713  0173                     l2296:	
  2714  0173  0008               	return
  2715                           	opt stack 0
  2716                           GLOBAL	__end_of_LCD_Initialize
  2717  0174                     	__end_of_LCD_Initialize:
  2718 ;; =============== function _LCD_Initialize ends ============
  2719                           
  2720                           	signat	_LCD_Initialize,88
  2721                           	global	_LCD_Write
  2722                           psect	text421,local,class=CODE,delta=2
  2723                           global __ptext421
  2724  0F1E                     __ptext421:
  2725                           
  2726 ;; *************** function _LCD_Write *****************
  2727 ;; Defined at:
  2728 ;;		line 48 in file "E:\pic program\Password Based Circuit Breaker\lcd.c"
  2729 ;; Parameters:    Size  Location     Type
  2730 ;;  CommandData     1    wreg     unsigned char 
  2731 ;;  DisplayData     1    4[COMMON] unsigned char 
  2732 ;; Auto vars:     Size  Location     Type
  2733 ;;  CommandData     1    6[COMMON] unsigned char 
  2734 ;; Return value:  Size  Location     Type
  2735 ;;		None               void
  2736 ;; Registers used:
  2737 ;;		wreg, status,2, status,0, pclath, cstack
  2738 ;; Tracked objects:
  2739 ;;		On entry : 0/0
  2740 ;;		On exit  : 0/0
  2741 ;;		Unchanged: 0/0
  2742 ;; Data sizes:     COMMON   BANK0   BANK1   BANK3   BANK2
  2743 ;;      Params:         1       0       0       0       0
  2744 ;;      Locals:         1       0       0       0       0
  2745 ;;      Temps:          1       0       0       0       0
  2746 ;;      Totals:         3       0       0       0       0
  2747 ;;Total ram usage:        3 bytes
  2748 ;; Hardware stack levels used:    1
  2749 ;; Hardware stack levels required when called:    2
  2750 ;; This function calls:
  2751 ;;		_LCD_Command
  2752 ;;		_LCD_Allort
  2753 ;; This function is called by:
  2754 ;;		_LCD_Disp
  2755 ;;		_main
  2756 ;;		_ChangePassWord
  2757 ;;		_Keypad
  2758 ;; This function uses a non-reentrant model
  2759 ;;
  2760                           psect	text421
  2761                           	file	"E:\pic program\Password Based Circuit Breaker\lcd.c"
  2762                           	line	48
  2763                           	global	__size_of_LCD_Write
  2764  005A                     	__size_of_LCD_Write	equ	__end_of_LCD_Write-_LCD_Write
  2765                           	
  2766  0F1E                     _LCD_Write:	
  2767                           	opt	stack 5
  2768                           ; Regs used in _LCD_Write: [wreg+status,2+status,0+pclath+cstack]
  2769                           ;LCD_Write@CommandData stored from wreg
  2770  0F1E  00F6               	movwf	(LCD_Write@CommandData)
  2771                           	line	49
  2772                           	
  2773  0F1F                     l8117:	
  2774                           ;lcd.c: 49: LCD_Command(CommandData);
  2775  0F1F  0876               	movf	(LCD_Write@CommandData),w
  2776  0F20  120A  158A  26C7   	fcall	_LCD_Command
              120A  158A         
  2777                           	line	50
  2778                           	
  2779  0F25                     l8119:	
  2780                           ;lcd.c: 50: PORTB |= (1 << 5);
  2781  0F25  1283               	bcf	status, 5	;RP0=0, select bank0
  2782  0F26  1303               	bcf	status, 6	;RP1=0, select bank0
  2783  0F27  1686               	bsf	(6)+(5/8),(5)&7	;volatile
  2784                           	line	51
  2785                           ;lcd.c: 51: LCD_Allort(DisplayData & 0xF0); { PORTB &=~ (1 << 4); _delay((unsigned long)
                                 ((5)*(20000000UL/4000000.0))); PORTB |= (1 << 4); _delay((unsigned long)((5)*(20000000UL
                                 /4000000.0))); PORTB &=~ (1 << 4); _delay((unsigned long)((100)*(20000000UL/4000000.0)
  2786  0F28  0874               	movf	(LCD_Write@DisplayData),w
  2787  0F29  39F0               	andlw	0F0h
  2788  0F2A  120A  158A  2662   	fcall	_LCD_Allort
              120A  158A         
  2789                           	
  2790  0F2F                     l8121:	
  2791  0F2F  30EF               	movlw	(0EFh)
  2792  0F30  00F5               	movwf	(??_LCD_Write+0)+0
  2793  0F31  0875               	movf	(??_LCD_Write+0)+0,w
  2794  0F32  1283               	bcf	status, 5	;RP0=0, select bank0
  2795  0F33  1303               	bcf	status, 6	;RP1=0, select bank0
  2796  0F34  0586               	andwf	(6),f	;volatile
  2797                           	
  2798  0F35                     l8123:	
  2799                           	opt asmopt_off
  2800  0F35  3008               movlw	8
  2801  0F36  00F5               movwf	(??_LCD_Write+0)+0,f
  2802  0F37                     u5057:
  2803  0F37  0BF5               decfsz	(??_LCD_Write+0)+0,f
  2804  0F38  2F37               	goto	u5057
  2805                           opt asmopt_on
  2806                           
  2807                           	
  2808  0F39                     l8125:	
  2809  0F39  1283               	bcf	status, 5	;RP0=0, select bank0
  2810  0F3A  1303               	bcf	status, 6	;RP1=0, select bank0
  2811  0F3B  1606               	bsf	(6)+(4/8),(4)&7	;volatile
  2812                           	
  2813  0F3C                     l8127:	
  2814                           	opt asmopt_off
  2815  0F3C  3008               movlw	8
  2816  0F3D  00F5               movwf	(??_LCD_Write+0)+0,f
  2817  0F3E                     u5067:
  2818  0F3E  0BF5               decfsz	(??_LCD_Write+0)+0,f
  2819  0F3F  2F3E               	goto	u5067
  2820                           opt asmopt_on
  2821                           
  2822                           	
  2823  0F40                     l8129:	
  2824  0F40  30EF               	movlw	(0EFh)
  2825  0F41  00F5               	movwf	(??_LCD_Write+0)+0
  2826  0F42  0875               	movf	(??_LCD_Write+0)+0,w
  2827  0F43  1283               	bcf	status, 5	;RP0=0, select bank0
  2828  0F44  1303               	bcf	status, 6	;RP1=0, select bank0
  2829  0F45  0586               	andwf	(6),f	;volatile
  2830                           	
  2831  0F46                     l8131:	
  2832                           	opt asmopt_off
  2833  0F46  30A6               movlw	166
  2834  0F47  00F5               movwf	(??_LCD_Write+0)+0,f
  2835  0F48                     u5077:
  2836  0F48  0BF5               decfsz	(??_LCD_Write+0)+0,f
  2837  0F49  2F48               	goto	u5077
  2838  0F4A  0064               	clrwdt
  2839                           opt asmopt_on
  2840                           
  2841                           	line	52
  2842                           	
  2843  0F4B                     l8133:	
  2844                           ;lcd.c: 52: LCD_Allort((DisplayData << 4) & 0xF0); { PORTB &=~ (1 << 4); _delay((unsigne
                                 d long)((5)*(20000000UL/4000000.0))); PORTB |= (1 << 4); _delay((unsigned long)((5)*(200
                                 00000UL/4000000.0))); PORTB &=~ (1 << 4); _delay((unsigned long)((100)*(20000000UL/400
  2845  0F4B  0874               	movf	(LCD_Write@DisplayData),w
  2846  0F4C  00F5               	movwf	(??_LCD_Write+0)+0
  2847  0F4D  3003               	movlw	(04h)-1
  2848  0F4E                     u4595:
  2849  0F4E  1003               	clrc
  2850  0F4F  0DF5               	rlf	(??_LCD_Write+0)+0,f
  2851  0F50  3EFF               	addlw	-1
  2852  0F51  1D03               	skipz
  2853  0F52  2F4E               	goto	u4595
  2854  0F53  1003               	clrc
  2855  0F54  0D75               	rlf	(??_LCD_Write+0)+0,w
  2856  0F55  39F0               	andlw	0F0h
  2857  0F56  120A  158A  2662   	fcall	_LCD_Allort
              120A  158A         
  2858                           	
  2859  0F5B                     l8135:	
  2860  0F5B  30EF               	movlw	(0EFh)
  2861  0F5C  00F5               	movwf	(??_LCD_Write+0)+0
  2862  0F5D  0875               	movf	(??_LCD_Write+0)+0,w
  2863  0F5E  1283               	bcf	status, 5	;RP0=0, select bank0
  2864  0F5F  1303               	bcf	status, 6	;RP1=0, select bank0
  2865  0F60  0586               	andwf	(6),f	;volatile
  2866                           	
  2867  0F61                     l8137:	
  2868                           	opt asmopt_off
  2869  0F61  3008               movlw	8
  2870  0F62  00F5               movwf	(??_LCD_Write+0)+0,f
  2871  0F63                     u5087:
  2872  0F63  0BF5               decfsz	(??_LCD_Write+0)+0,f
  2873  0F64  2F63               	goto	u5087
  2874                           opt asmopt_on
  2875                           
  2876                           	
  2877  0F65                     l8139:	
  2878  0F65  1283               	bcf	status, 5	;RP0=0, select bank0
  2879  0F66  1303               	bcf	status, 6	;RP1=0, select bank0
  2880  0F67  1606               	bsf	(6)+(4/8),(4)&7	;volatile
  2881                           	
  2882  0F68                     l8141:	
  2883                           	opt asmopt_off
  2884  0F68  3008               movlw	8
  2885  0F69  00F5               movwf	(??_LCD_Write+0)+0,f
  2886  0F6A                     u5097:
  2887  0F6A  0BF5               decfsz	(??_LCD_Write+0)+0,f
  2888  0F6B  2F6A               	goto	u5097
  2889                           opt asmopt_on
  2890                           
  2891                           	
  2892  0F6C                     l8143:	
  2893  0F6C  30EF               	movlw	(0EFh)
  2894  0F6D  00F5               	movwf	(??_LCD_Write+0)+0
  2895  0F6E  0875               	movf	(??_LCD_Write+0)+0,w
  2896  0F6F  1283               	bcf	status, 5	;RP0=0, select bank0
  2897  0F70  1303               	bcf	status, 6	;RP1=0, select bank0
  2898  0F71  0586               	andwf	(6),f	;volatile
  2899                           	opt asmopt_off
  2900  0F72  30A6               movlw	166
  2901  0F73  00F5               movwf	(??_LCD_Write+0)+0,f
  2902  0F74                     u5107:
  2903  0F74  0BF5               decfsz	(??_LCD_Write+0)+0,f
  2904  0F75  2F74               	goto	u5107
  2905  0F76  0064               	clrwdt
  2906                           opt asmopt_on
  2907                           
  2908                           	line	53
  2909                           	
  2910  0F77                     l2302:	
  2911  0F77  0008               	return
  2912                           	opt stack 0
  2913                           GLOBAL	__end_of_LCD_Write
  2914  0F78                     	__end_of_LCD_Write:
  2915 ;; =============== function _LCD_Write ends ============
  2916                           
  2917                           	signat	_LCD_Write,8312
  2918                           	global	_atoi
  2919                           psect	text422,local,class=CODE,delta=2
  2920                           global __ptext422
  2921  0F78                     __ptext422:
  2922                           
  2923 ;; *************** function _atoi *****************
  2924 ;; Defined at:
  2925 ;;		line 6 in file "C:\Program Files (x86)\HI-TECH Software\PICC\9.82\sources\atoi.c"
  2926 ;; Parameters:    Size  Location     Type
  2927 ;;  s               1    wreg     PTR const unsigned char 
  2928 ;;		 -> LocalArray(5), RTC_Keypad@LocalArray(4), 
  2929 ;; Auto vars:     Size  Location     Type
  2930 ;;  s               1   13[COMMON] PTR const unsigned char 
  2931 ;;		 -> LocalArray(5), RTC_Keypad@LocalArray(4), 
  2932 ;;  a               2   11[COMMON] int 
  2933 ;;  sign            1   10[COMMON] unsigned char 
  2934 ;; Return value:  Size  Location     Type
  2935 ;;                  2    6[COMMON] int 
  2936 ;; Registers used:
  2937 ;;		wreg, fsr0l, fsr0h, status,2, status,0, pclath, cstack
  2938 ;; Tracked objects:
  2939 ;;		On entry : 0/0
  2940 ;;		On exit  : 0/0
  2941 ;;		Unchanged: 0/0
  2942 ;; Data sizes:     COMMON   BANK0   BANK1   BANK3   BANK2
  2943 ;;      Params:         2       0       0       0       0
  2944 ;;      Locals:         4       0       0       0       0
  2945 ;;      Temps:          2       0       0       0       0
  2946 ;;      Totals:         8       0       0       0       0
  2947 ;;Total ram usage:        8 bytes
  2948 ;; Hardware stack levels used:    1
  2949 ;; Hardware stack levels required when called:    1
  2950 ;; This function calls:
  2951 ;;		___wmul
  2952 ;;		_isdigit
  2953 ;; This function is called by:
  2954 ;;		_main
  2955 ;;		_ChangePassWord
  2956 ;;		_RTC_Keypad
  2957 ;; This function uses a non-reentrant model
  2958 ;;
  2959                           psect	text422
  2960                           	file	"C:\Program Files (x86)\HI-TECH Software\PICC\9.82\sources\atoi.c"
  2961                           	line	6
  2962                           	global	__size_of_atoi
  2963  0088                     	__size_of_atoi	equ	__end_of_atoi-_atoi
  2964                           	
  2965  0F78                     _atoi:	
  2966                           	opt	stack 5
  2967                           ; Regs used in _atoi: [wreg-fsr0h+status,2+status,0+pclath+cstack]
  2968                           ;atoi@s stored from wreg
  2969  0F78  00FD               	movwf	(atoi@s)
  2970                           	line	10
  2971                           	
  2972  0F79                     l8081:	
  2973  0F79  2F7F               	goto	l8085
  2974                           	
  2975  0F7A                     l5033:	
  2976                           	line	11
  2977                           	
  2978  0F7A                     l8083:	
  2979  0F7A  3001               	movlw	(01h)
  2980  0F7B  00F8               	movwf	(??_atoi+0)+0
  2981  0F7C  0878               	movf	(??_atoi+0)+0,w
  2982  0F7D  07FD               	addwf	(atoi@s),f
  2983  0F7E  2F7F               	goto	l8085
  2984                           	
  2985  0F7F                     l5032:	
  2986                           	line	10
  2987                           	
  2988  0F7F                     l8085:	
  2989  0F7F  087D               	movf	(atoi@s),w
  2990  0F80  0084               	movwf	fsr0
  2991  0F81  1383               	bcf	status, 7	;select IRP bank0
  2992  0F82  0800               	movf	indf,w
  2993  0F83  3A20               	xorlw	020h
  2994  0F84  1903               	skipnz
  2995  0F85  2F87               	goto	u4531
  2996  0F86  2F88               	goto	u4530
  2997  0F87                     u4531:
  2998  0F87  2F7A               	goto	l8083
  2999  0F88                     u4530:
  3000                           	
  3001  0F88                     l8087:	
  3002  0F88  087D               	movf	(atoi@s),w
  3003  0F89  0084               	movwf	fsr0
  3004  0F8A  0800               	movf	indf,w
  3005  0F8B  3A09               	xorlw	09h
  3006  0F8C  1903               	skipnz
  3007  0F8D  2F8F               	goto	u4541
  3008  0F8E  2F90               	goto	u4540
  3009  0F8F                     u4541:
  3010  0F8F  2F7A               	goto	l8083
  3011  0F90                     u4540:
  3012  0F90  2F91               	goto	l8089
  3013                           	
  3014  0F91                     l5034:	
  3015                           	line	12
  3016                           	
  3017  0F91                     l8089:	
  3018  0F91  01FB               	clrf	(atoi@a)
  3019  0F92  01FC               	clrf	(atoi@a+1)
  3020                           	line	13
  3021                           	
  3022  0F93                     l8091:	
  3023  0F93  01FA               	clrf	(atoi@sign)
  3024                           	line	14
  3025                           	
  3026  0F94                     l8093:	
  3027  0F94  087D               	movf	(atoi@s),w
  3028  0F95  0084               	movwf	fsr0
  3029  0F96  0800               	movf	indf,w
  3030  0F97  3A2D               	xorlw	02Dh
  3031  0F98  1D03               	skipz
  3032  0F99  2F9B               	goto	u4551
  3033  0F9A  2F9C               	goto	u4550
  3034  0F9B                     u4551:
  3035  0F9B  2FA5               	goto	l8097
  3036  0F9C                     u4550:
  3037                           	line	15
  3038                           	
  3039  0F9C                     l8095:	
  3040  0F9C  3001               	movlw	(01h)
  3041  0F9D  00F8               	movwf	(??_atoi+0)+0
  3042  0F9E  0878               	movf	(??_atoi+0)+0,w
  3043  0F9F  07FA               	addwf	(atoi@sign),f
  3044                           	line	16
  3045  0FA0  3001               	movlw	(01h)
  3046  0FA1  00F8               	movwf	(??_atoi+0)+0
  3047  0FA2  0878               	movf	(??_atoi+0)+0,w
  3048  0FA3  07FD               	addwf	(atoi@s),f
  3049                           	line	17
  3050  0FA4  2FDA               	goto	l8105
  3051                           	
  3052  0FA5                     l5035:	
  3053                           	
  3054  0FA5                     l8097:	
  3055  0FA5  087D               	movf	(atoi@s),w
  3056  0FA6  0084               	movwf	fsr0
  3057  0FA7  0800               	movf	indf,w
  3058  0FA8  3A2B               	xorlw	02Bh
  3059  0FA9  1D03               	skipz
  3060  0FAA  2FAC               	goto	u4561
  3061  0FAB  2FAD               	goto	u4560
  3062  0FAC                     u4561:
  3063  0FAC  2FDA               	goto	l8105
  3064  0FAD                     u4560:
  3065                           	line	18
  3066                           	
  3067  0FAD                     l8099:	
  3068  0FAD  3001               	movlw	(01h)
  3069  0FAE  00F8               	movwf	(??_atoi+0)+0
  3070  0FAF  0878               	movf	(??_atoi+0)+0,w
  3071  0FB0  07FD               	addwf	(atoi@s),f
  3072  0FB1  2FDA               	goto	l8105
  3073                           	
  3074  0FB2                     l5037:	
  3075  0FB2  2FDA               	goto	l8105
  3076                           	line	19
  3077                           	
  3078  0FB3                     l5036:	
  3079  0FB3  2FDA               	goto	l8105
  3080                           	
  3081  0FB4                     l5039:	
  3082                           	line	20
  3083                           	
  3084  0FB4                     l8101:	
  3085  0FB4  087C               	movf	(atoi@a+1),w
  3086  0FB5  01F1               	clrf	(?___wmul+1)
  3087  0FB6  07F1               	addwf	(?___wmul+1)
  3088  0FB7  087B               	movf	(atoi@a),w
  3089  0FB8  01F0               	clrf	(?___wmul)
  3090  0FB9  07F0               	addwf	(?___wmul)
  3091                           
  3092  0FBA  300A               	movlw	low(0Ah)
  3093  0FBB  00F2               	movwf	0+(?___wmul)+02h
  3094  0FBC  3000               	movlw	high(0Ah)
  3095  0FBD  00F3               	movwf	(0+(?___wmul)+02h)+1
  3096  0FBE  120A  158A  2607   	fcall	___wmul
              120A  158A         
  3097  0FC3  087D               	movf	(atoi@s),w
  3098  0FC4  0084               	movwf	fsr0
  3099  0FC5  1383               	bcf	status, 7	;select IRP bank0
  3100  0FC6  0800               	movf	indf,w
  3101  0FC7  0770               	addwf	(0+(?___wmul)),w
  3102  0FC8  00F8               	movwf	(??_atoi+0)+0
  3103  0FC9  0871               	movf	(1+(?___wmul)),w
  3104  0FCA  1803               	skipnc
  3105  0FCB  0A71               	incf	(1+(?___wmul)),w
  3106  0FCC  00F9               	movwf	((??_atoi+0)+0)+1
  3107  0FCD  0878               	movf	0+(??_atoi+0)+0,w
  3108  0FCE  3ED0               	addlw	low(0FFD0h)
  3109  0FCF  00FB               	movwf	(atoi@a)
  3110  0FD0  0879               	movf	1+(??_atoi+0)+0,w
  3111  0FD1  1803               	skipnc
  3112  0FD2  3E01               	addlw	1
  3113  0FD3  3EFF               	addlw	high(0FFD0h)
  3114  0FD4  00FC               	movwf	1+(atoi@a)
  3115                           	
  3116  0FD5                     l8103:	
  3117  0FD5  3001               	movlw	(01h)
  3118  0FD6  00F8               	movwf	(??_atoi+0)+0
  3119  0FD7  0878               	movf	(??_atoi+0)+0,w
  3120  0FD8  07FD               	addwf	(atoi@s),f
  3121  0FD9  2FDA               	goto	l8105
  3122                           	
  3123  0FDA                     l5038:	
  3124                           	line	19
  3125                           	
  3126  0FDA                     l8105:	
  3127  0FDA  087D               	movf	(atoi@s),w
  3128  0FDB  0084               	movwf	fsr0
  3129  0FDC  0800               	movf	indf,w
  3130  0FDD  120A  158A  25AF   	fcall	_isdigit
              120A  158A         
  3131  0FE2  1803               	btfsc	status,0
  3132  0FE3  2FE5               	goto	u4571
  3133  0FE4  2FE6               	goto	u4570
  3134  0FE5                     u4571:
  3135  0FE5  2FB4               	goto	l8101
  3136  0FE6                     u4570:
  3137  0FE6  2FE7               	goto	l8107
  3138                           	
  3139  0FE7                     l5040:	
  3140                           	line	21
  3141                           	
  3142  0FE7                     l8107:	
  3143  0FE7  087A               	movf	(atoi@sign),w
  3144  0FE8  1D03               	skipz
  3145  0FE9  2FEB               	goto	u4580
  3146  0FEA  2FF8               	goto	l8113
  3147  0FEB                     u4580:
  3148                           	line	22
  3149                           	
  3150  0FEB                     l8109:	
  3151  0FEB  097B               	comf	(atoi@a),w
  3152  0FEC  00F8               	movwf	(??_atoi+0)+0
  3153  0FED  097C               	comf	(atoi@a+1),w
  3154  0FEE  00F9               	movwf	((??_atoi+0)+0+1)
  3155  0FEF  0AF8               	incf	(??_atoi+0)+0,f
  3156  0FF0  1903               	skipnz
  3157  0FF1  0AF9               	incf	((??_atoi+0)+0+1),f
  3158  0FF2  0878               	movf	0+(??_atoi+0)+0,w
  3159  0FF3  00F6               	movwf	(?_atoi)
  3160  0FF4  0879               	movf	1+(??_atoi+0)+0,w
  3161  0FF5  00F7               	movwf	(?_atoi+1)
  3162  0FF6  2FFF               	goto	l5042
  3163                           	
  3164  0FF7                     l8111:	
  3165  0FF7  2FFF               	goto	l5042
  3166                           	
  3167  0FF8                     l5041:	
  3168                           	line	23
  3169                           	
  3170  0FF8                     l8113:	
  3171  0FF8  087C               	movf	(atoi@a+1),w
  3172  0FF9  01F7               	clrf	(?_atoi+1)
  3173  0FFA  07F7               	addwf	(?_atoi+1)
  3174  0FFB  087B               	movf	(atoi@a),w
  3175  0FFC  01F6               	clrf	(?_atoi)
  3176  0FFD  07F6               	addwf	(?_atoi)
  3177                           
  3178  0FFE  2FFF               	goto	l5042
  3179                           	
  3180  0FFF                     l8115:	
  3181                           	line	24
  3182                           	
  3183  0FFF                     l5042:	
  3184  0FFF  0008               	return
  3185                           	opt stack 0
  3186                           GLOBAL	__end_of_atoi
  3187  1000                     	__end_of_atoi:
  3188 ;; =============== function _atoi ends ============
  3189                           
  3190                           	signat	_atoi,4218
  3191                           	global	_LCD_Command
  3192                           psect	text423,local,class=CODE,delta=2
  3193                           global __ptext423
  3194  0EC7                     __ptext423:
  3195                           
  3196 ;; *************** function _LCD_Command *****************
  3197 ;; Defined at:
  3198 ;;		line 41 in file "E:\pic program\Password Based Circuit Breaker\lcd.c"
  3199 ;; Parameters:    Size  Location     Type
  3200 ;;  CommandData     1    wreg     unsigned char 
  3201 ;; Auto vars:     Size  Location     Type
  3202 ;;  CommandData     1    3[COMMON] unsigned char 
  3203 ;; Return value:  Size  Location     Type
  3204 ;;		None               void
  3205 ;; Registers used:
  3206 ;;		wreg, status,2, status,0, pclath, cstack
  3207 ;; Tracked objects:
  3208 ;;		On entry : 0/0
  3209 ;;		On exit  : 0/0
  3210 ;;		Unchanged: 0/0
  3211 ;; Data sizes:     COMMON   BANK0   BANK1   BANK3   BANK2
  3212 ;;      Params:         0       0       0       0       0
  3213 ;;      Locals:         1       0       0       0       0
  3214 ;;      Temps:          1       0       0       0       0
  3215 ;;      Totals:         2       0       0       0       0
  3216 ;;Total ram usage:        2 bytes
  3217 ;; Hardware stack levels used:    1
  3218 ;; Hardware stack levels required when called:    1
  3219 ;; This function calls:
  3220 ;;		_LCD_Allort
  3221 ;; This function is called by:
  3222 ;;		_LCD_Initialize
  3223 ;;		_LCD_Write
  3224 ;;		_main
  3225 ;;		_ChangePassWord
  3226 ;;		_Keypad
  3227 ;;		_RTC_Keypad
  3228 ;; This function uses a non-reentrant model
  3229 ;;
  3230                           psect	text423
  3231                           	file	"E:\pic program\Password Based Circuit Breaker\lcd.c"
  3232                           	line	41
  3233                           	global	__size_of_LCD_Command
  3234  0057                     	__size_of_LCD_Command	equ	__end_of_LCD_Command-_LCD_Command
  3235                           	
  3236  0EC7                     _LCD_Command:	
  3237                           	opt	stack 5
  3238                           ; Regs used in _LCD_Command: [wreg+status,2+status,0+pclath+cstack]
  3239                           ;LCD_Command@CommandData stored from wreg
  3240  0EC7  00F3               	movwf	(LCD_Command@CommandData)
  3241                           	line	42
  3242                           	
  3243  0EC8                     l8055:	
  3244                           ;lcd.c: 42: PORTB &=~ (1 << 5);
  3245  0EC8  30DF               	movlw	(0DFh)
  3246  0EC9  00F2               	movwf	(??_LCD_Command+0)+0
  3247  0ECA  0872               	movf	(??_LCD_Command+0)+0,w
  3248  0ECB  1283               	bcf	status, 5	;RP0=0, select bank0
  3249  0ECC  1303               	bcf	status, 6	;RP1=0, select bank0
  3250  0ECD  0586               	andwf	(6),f	;volatile
  3251                           	line	43
  3252                           	
  3253  0ECE                     l8057:	
  3254                           ;lcd.c: 43: LCD_Allort(CommandData & 0xF0); { PORTB &=~ (1 << 4); _delay((unsigned long)
                                 ((5)*(20000000UL/4000000.0))); PORTB |= (1 << 4); _delay((unsigned long)((5)*(20000000UL
                                 /4000000.0))); PORTB &=~ (1 << 4); _delay((unsigned long)((100)*(20000000UL/4000000.0)
  3255  0ECE  0873               	movf	(LCD_Command@CommandData),w
  3256  0ECF  39F0               	andlw	0F0h
  3257  0ED0  120A  158A  2662   	fcall	_LCD_Allort
              120A  158A         
  3258                           	
  3259  0ED5                     l8059:	
  3260  0ED5  30EF               	movlw	(0EFh)
  3261  0ED6  00F2               	movwf	(??_LCD_Command+0)+0
  3262  0ED7  0872               	movf	(??_LCD_Command+0)+0,w
  3263  0ED8  1283               	bcf	status, 5	;RP0=0, select bank0
  3264  0ED9  1303               	bcf	status, 6	;RP1=0, select bank0
  3265  0EDA  0586               	andwf	(6),f	;volatile
  3266                           	
  3267  0EDB                     l8061:	
  3268                           	opt asmopt_off
  3269  0EDB  3008               movlw	8
  3270  0EDC  00F2               movwf	(??_LCD_Command+0)+0,f
  3271  0EDD                     u5117:
  3272  0EDD  0BF2               decfsz	(??_LCD_Command+0)+0,f
  3273  0EDE  2EDD               	goto	u5117
  3274                           opt asmopt_on
  3275                           
  3276                           	
  3277  0EDF                     l8063:	
  3278  0EDF  1283               	bcf	status, 5	;RP0=0, select bank0
  3279  0EE0  1303               	bcf	status, 6	;RP1=0, select bank0
  3280  0EE1  1606               	bsf	(6)+(4/8),(4)&7	;volatile
  3281                           	
  3282  0EE2                     l8065:	
  3283                           	opt asmopt_off
  3284  0EE2  3008               movlw	8
  3285  0EE3  00F2               movwf	(??_LCD_Command+0)+0,f
  3286  0EE4                     u5127:
  3287  0EE4  0BF2               decfsz	(??_LCD_Command+0)+0,f
  3288  0EE5  2EE4               	goto	u5127
  3289                           opt asmopt_on
  3290                           
  3291                           	
  3292  0EE6                     l8067:	
  3293  0EE6  30EF               	movlw	(0EFh)
  3294  0EE7  00F2               	movwf	(??_LCD_Command+0)+0
  3295  0EE8  0872               	movf	(??_LCD_Command+0)+0,w
  3296  0EE9  1283               	bcf	status, 5	;RP0=0, select bank0
  3297  0EEA  1303               	bcf	status, 6	;RP1=0, select bank0
  3298  0EEB  0586               	andwf	(6),f	;volatile
  3299                           	
  3300  0EEC                     l8069:	
  3301                           	opt asmopt_off
  3302  0EEC  30A6               movlw	166
  3303  0EED  00F2               movwf	(??_LCD_Command+0)+0,f
  3304  0EEE                     u5137:
  3305  0EEE  0BF2               decfsz	(??_LCD_Command+0)+0,f
  3306  0EEF  2EEE               	goto	u5137
  3307  0EF0  0064               	clrwdt
  3308                           opt asmopt_on
  3309                           
  3310                           	line	44
  3311                           	
  3312  0EF1                     l8071:	
  3313                           ;lcd.c: 44: LCD_Allort((CommandData << 4) & 0xF0); { PORTB &=~ (1 << 4); _delay((unsigne
                                 d long)((5)*(20000000UL/4000000.0))); PORTB |= (1 << 4); _delay((unsigned long)((5)*(200
                                 00000UL/4000000.0))); PORTB &=~ (1 << 4); _delay((unsigned long)((100)*(20000000UL/400
  3314  0EF1  0873               	movf	(LCD_Command@CommandData),w
  3315  0EF2  00F2               	movwf	(??_LCD_Command+0)+0
  3316  0EF3  3003               	movlw	(04h)-1
  3317  0EF4                     u4525:
  3318  0EF4  1003               	clrc
  3319  0EF5  0DF2               	rlf	(??_LCD_Command+0)+0,f
  3320  0EF6  3EFF               	addlw	-1
  3321  0EF7  1D03               	skipz
  3322  0EF8  2EF4               	goto	u4525
  3323  0EF9  1003               	clrc
  3324  0EFA  0D72               	rlf	(??_LCD_Command+0)+0,w
  3325  0EFB  39F0               	andlw	0F0h
  3326  0EFC  120A  158A  2662   	fcall	_LCD_Allort
              120A  158A         
  3327                           	
  3328  0F01                     l8073:	
  3329  0F01  30EF               	movlw	(0EFh)
  3330  0F02  00F2               	movwf	(??_LCD_Command+0)+0
  3331  0F03  0872               	movf	(??_LCD_Command+0)+0,w
  3332  0F04  1283               	bcf	status, 5	;RP0=0, select bank0
  3333  0F05  1303               	bcf	status, 6	;RP1=0, select bank0
  3334  0F06  0586               	andwf	(6),f	;volatile
  3335                           	opt asmopt_off
  3336  0F07  3008               movlw	8
  3337  0F08  00F2               movwf	(??_LCD_Command+0)+0,f
  3338  0F09                     u5147:
  3339  0F09  0BF2               decfsz	(??_LCD_Command+0)+0,f
  3340  0F0A  2F09               	goto	u5147
  3341                           opt asmopt_on
  3342                           
  3343                           	
  3344  0F0B                     l8075:	
  3345  0F0B  1283               	bcf	status, 5	;RP0=0, select bank0
  3346  0F0C  1303               	bcf	status, 6	;RP1=0, select bank0
  3347  0F0D  1606               	bsf	(6)+(4/8),(4)&7	;volatile
  3348                           	opt asmopt_off
  3349  0F0E  3008               movlw	8
  3350  0F0F  00F2               movwf	(??_LCD_Command+0)+0,f
  3351  0F10                     u5157:
  3352  0F10  0BF2               decfsz	(??_LCD_Command+0)+0,f
  3353  0F11  2F10               	goto	u5157
  3354                           opt asmopt_on
  3355                           
  3356                           	
  3357  0F12                     l8077:	
  3358  0F12  30EF               	movlw	(0EFh)
  3359  0F13  00F2               	movwf	(??_LCD_Command+0)+0
  3360  0F14  0872               	movf	(??_LCD_Command+0)+0,w
  3361  0F15  1283               	bcf	status, 5	;RP0=0, select bank0
  3362  0F16  1303               	bcf	status, 6	;RP1=0, select bank0
  3363  0F17  0586               	andwf	(6),f	;volatile
  3364                           	
  3365  0F18                     l8079:	
  3366                           	opt asmopt_off
  3367  0F18  30A6               movlw	166
  3368  0F19  00F2               movwf	(??_LCD_Command+0)+0,f
  3369  0F1A                     u5167:
  3370  0F1A  0BF2               decfsz	(??_LCD_Command+0)+0,f
  3371  0F1B  2F1A               	goto	u5167
  3372  0F1C  0064               	clrwdt
  3373                           opt asmopt_on
  3374                           
  3375                           	line	45
  3376                           	
  3377  0F1D                     l2299:	
  3378  0F1D  0008               	return
  3379                           	opt stack 0
  3380                           GLOBAL	__end_of_LCD_Command
  3381  0F1E                     	__end_of_LCD_Command:
  3382 ;; =============== function _LCD_Command ends ============
  3383                           
  3384                           	signat	_LCD_Command,4216
  3385                           	global	_FetchKey
  3386                           psect	text424,local,class=CODE,delta=2
  3387                           global __ptext424
  3388  0530                     __ptext424:
  3389                           
  3390 ;; *************** function _FetchKey *****************
  3391 ;; Defined at:
  3392 ;;		line 39 in file "E:\pic program\Password Based Circuit Breaker\keypad.c"
  3393 ;; Parameters:    Size  Location     Type
  3394 ;;  Var1            1    wreg     PTR unsigned int 
  3395 ;;		 -> KeyDebounceTime(2), Keypad@KeyFetchTime(2), 
  3396 ;; Auto vars:     Size  Location     Type
  3397 ;;  Var1            1    4[COMMON] PTR unsigned int 
  3398 ;;		 -> KeyDebounceTime(2), Keypad@KeyFetchTime(2), 
  3399 ;;  ButtonPresse    2    2[COMMON] unsigned int 
  3400 ;; Return value:  Size  Location     Type
  3401 ;;                  1    wreg      unsigned char 
  3402 ;; Registers used:
  3403 ;;		wreg, fsr0l, fsr0h, status,2
  3404 ;; Tracked objects:
  3405 ;;		On entry : 0/0
  3406 ;;		On exit  : 0/0
  3407 ;;		Unchanged: 0/0
  3408 ;; Data sizes:     COMMON   BANK0   BANK1   BANK3   BANK2
  3409 ;;      Params:         0       0       0       0       0
  3410 ;;      Locals:         3       0       0       0       0
  3411 ;;      Temps:          2       0       0       0       0
  3412 ;;      Totals:         5       0       0       0       0
  3413 ;;Total ram usage:        5 bytes
  3414 ;; Hardware stack levels used:    1
  3415 ;; This function calls:
  3416 ;;		Nothing
  3417 ;; This function is called by:
  3418 ;;		_main
  3419 ;;		_ChangePassWord
  3420 ;;		_Keypad
  3421 ;; This function uses a non-reentrant model
  3422 ;;
  3423                           psect	text424
  3424                           	file	"E:\pic program\Password Based Circuit Breaker\keypad.c"
  3425                           	line	39
  3426                           	global	__size_of_FetchKey
  3427  02D0                     	__size_of_FetchKey	equ	__end_of_FetchKey-_FetchKey
  3428                           	
  3429  0530                     _FetchKey:	
  3430                           	opt	stack 6
  3431                           ; Regs used in _FetchKey: [wreg-fsr0h+status,2]
  3432                           ;FetchKey@Var1 stored from wreg
  3433  0530  00F4               	movwf	(FetchKey@Var1)
  3434                           	line	40
  3435                           	
  3436  0531                     l7833:	
  3437                           ;keypad.c: 40: unsigned int ButtonPressedTime = 0x00;
  3438  0531  01F2               	clrf	(FetchKey@ButtonPressedTime)
  3439  0532  01F3               	clrf	(FetchKey@ButtonPressedTime+1)
  3440                           	line	89
  3441                           ;keypad.c: 89: while(!Row1 && !Row2 && !Row3 && !Row4);
  3442  0533  2D34               	goto	l1501
  3443                           	
  3444  0534                     l1502:	
  3445                           	
  3446  0534                     l1501:	
  3447  0534  1283               	bcf	status, 5	;RP0=0, select bank0
  3448  0535  1303               	bcf	status, 6	;RP1=0, select bank0
  3449  0536  1805               	btfsc	(40/8),(40)&7
  3450  0537  2D39               	goto	u4041
  3451  0538  2D3A               	goto	u4040
  3452  0539                     u4041:
  3453  0539  2D47               	goto	l1505
  3454  053A                     u4040:
  3455                           	
  3456  053A                     l7835:	
  3457  053A  1885               	btfsc	(41/8),(41)&7
  3458  053B  2D3D               	goto	u4051
  3459  053C  2D3E               	goto	u4050
  3460  053D                     u4051:
  3461  053D  2D47               	goto	l1505
  3462  053E                     u4050:
  3463                           	
  3464  053E                     l7837:	
  3465  053E  1905               	btfsc	(42/8),(42)&7
  3466  053F  2D41               	goto	u4061
  3467  0540  2D42               	goto	u4060
  3468  0541                     u4061:
  3469  0541  2D47               	goto	l1505
  3470  0542                     u4060:
  3471                           	
  3472  0542                     l7839:	
  3473  0542  1D85               	btfss	(43/8),(43)&7
  3474  0543  2D45               	goto	u4071
  3475  0544  2D46               	goto	u4070
  3476  0545                     u4071:
  3477  0545  2D34               	goto	l1501
  3478  0546                     u4070:
  3479  0546  2D47               	goto	l1505
  3480                           	
  3481  0547                     l1504:	
  3482                           	
  3483  0547                     l1505:	
  3484                           	line	90
  3485                           ;keypad.c: 90: Col1 = 0; Col2 = 1; Col3 = 1; Col4 = 1;
  3486  0547  1007               	bcf	(56/8),(56)&7
  3487  0548  1487               	bsf	(57/8),(57)&7
  3488  0549  1507               	bsf	(58/8),(58)&7
  3489  054A  1587               	bsf	(59/8),(59)&7
  3490                           	line	91
  3491                           ;keypad.c: 91: if(!Row1)
  3492  054B  1805               	btfsc	(40/8),(40)&7
  3493  054C  2D4E               	goto	u4081
  3494  054D  2D4F               	goto	u4080
  3495  054E                     u4081:
  3496  054E  2D72               	goto	l1506
  3497  054F                     u4080:
  3498  054F  2D68               	goto	l7847
  3499                           	line	93
  3500                           	
  3501  0550                     l7841:	
  3502                           ;keypad.c: 92: {
  3503                           ;keypad.c: 93: while(!Row1)
  3504  0550  2D68               	goto	l7847
  3505                           	
  3506  0551                     l1508:	
  3507                           	line	95
  3508                           	
  3509  0551                     l7843:	
  3510                           ;keypad.c: 94: {
  3511                           ;keypad.c: 95: *Var1 = ++ButtonPressedTime;
  3512  0551  3001               	movlw	low(01h)
  3513  0552  07F2               	addwf	(FetchKey@ButtonPressedTime),f
  3514  0553  1803               	skipnc
  3515  0554  0AF3               	incf	(FetchKey@ButtonPressedTime+1),f
  3516  0555  3000               	movlw	high(01h)
  3517  0556  07F3               	addwf	(FetchKey@ButtonPressedTime+1),f
  3518  0557  0874               	movf	(FetchKey@Var1),w
  3519  0558  0084               	movwf	fsr0
  3520  0559  0872               	movf	((FetchKey@ButtonPressedTime)),w
  3521  055A  1383               	bcf	status, 7	;select IRP bank0
  3522  055B  0080               	movwf	indf
  3523  055C  0A84               	incf	fsr0,f
  3524  055D  0873               	movf	((FetchKey@ButtonPressedTime+1)),w
  3525  055E  0080               	movwf	indf
  3526                           	line	96
  3527                           	
  3528  055F                     l7845:	
  3529                           ;keypad.c: 96: _delay((unsigned long)((1)*(20000000UL/4000.0)));
  3530                           	opt asmopt_off
  3531  055F  3007               movlw	7
  3532  0560  00F1               movwf	((??_FetchKey+0)+0+1),f
  3533  0561  307D               	movlw	125
  3534  0562  00F0               movwf	((??_FetchKey+0)+0),f
  3535  0563                     u5177:
  3536  0563  0BF0               	decfsz	((??_FetchKey+0)+0),f
  3537  0564  2D63               	goto	u5177
  3538  0565  0BF1               	decfsz	((??_FetchKey+0)+0+1),f
  3539  0566  2D63               	goto	u5177
  3540                           opt asmopt_on
  3541                           
  3542  0567  2D68               	goto	l7847
  3543                           	line	97
  3544                           	
  3545  0568                     l1507:	
  3546                           	line	93
  3547                           	
  3548  0568                     l7847:	
  3549  0568  1283               	bcf	status, 5	;RP0=0, select bank0
  3550  0569  1303               	bcf	status, 6	;RP1=0, select bank0
  3551  056A  1C05               	btfss	(40/8),(40)&7
  3552  056B  2D6D               	goto	u4091
  3553  056C  2D6E               	goto	u4090
  3554  056D                     u4091:
  3555  056D  2D51               	goto	l7843
  3556  056E                     u4090:
  3557  056E  2D6F               	goto	l7849
  3558                           	
  3559  056F                     l1509:	
  3560                           	line	98
  3561                           	
  3562  056F                     l7849:	
  3563                           ;keypad.c: 97: }
  3564                           ;keypad.c: 98: return '1';
  3565  056F  3031               	movlw	(031h)
  3566  0570  2FFF               	goto	l1510
  3567                           	
  3568  0571                     l7851:	
  3569  0571  2FFF               	goto	l1510
  3570                           	line	99
  3571                           	
  3572  0572                     l1506:	
  3573                           	line	100
  3574                           ;keypad.c: 99: }
  3575                           ;keypad.c: 100: if(!Row2)
  3576  0572  1885               	btfsc	(41/8),(41)&7
  3577  0573  2D75               	goto	u4101
  3578  0574  2D76               	goto	u4100
  3579  0575                     u4101:
  3580  0575  2D99               	goto	l1511
  3581  0576                     u4100:
  3582  0576  2D8F               	goto	l7859
  3583                           	line	102
  3584                           	
  3585  0577                     l7853:	
  3586                           ;keypad.c: 101: {
  3587                           ;keypad.c: 102: while(!Row2)
  3588  0577  2D8F               	goto	l7859
  3589                           	
  3590  0578                     l1513:	
  3591                           	line	104
  3592                           	
  3593  0578                     l7855:	
  3594                           ;keypad.c: 103: {
  3595                           ;keypad.c: 104: *Var1 = ++ButtonPressedTime;
  3596  0578  3001               	movlw	low(01h)
  3597  0579  07F2               	addwf	(FetchKey@ButtonPressedTime),f
  3598  057A  1803               	skipnc
  3599  057B  0AF3               	incf	(FetchKey@ButtonPressedTime+1),f
  3600  057C  3000               	movlw	high(01h)
  3601  057D  07F3               	addwf	(FetchKey@ButtonPressedTime+1),f
  3602  057E  0874               	movf	(FetchKey@Var1),w
  3603  057F  0084               	movwf	fsr0
  3604  0580  0872               	movf	((FetchKey@ButtonPressedTime)),w
  3605  0581  1383               	bcf	status, 7	;select IRP bank0
  3606  0582  0080               	movwf	indf
  3607  0583  0A84               	incf	fsr0,f
  3608  0584  0873               	movf	((FetchKey@ButtonPressedTime+1)),w
  3609  0585  0080               	movwf	indf
  3610                           	line	105
  3611                           	
  3612  0586                     l7857:	
  3613                           ;keypad.c: 105: _delay((unsigned long)((1)*(20000000UL/4000.0)));
  3614                           	opt asmopt_off
  3615  0586  3007               movlw	7
  3616  0587  00F1               movwf	((??_FetchKey+0)+0+1),f
  3617  0588  307D               	movlw	125
  3618  0589  00F0               movwf	((??_FetchKey+0)+0),f
  3619  058A                     u5187:
  3620  058A  0BF0               	decfsz	((??_FetchKey+0)+0),f
  3621  058B  2D8A               	goto	u5187
  3622  058C  0BF1               	decfsz	((??_FetchKey+0)+0+1),f
  3623  058D  2D8A               	goto	u5187
  3624                           opt asmopt_on
  3625                           
  3626  058E  2D8F               	goto	l7859
  3627                           	line	106
  3628                           	
  3629  058F                     l1512:	
  3630                           	line	102
  3631                           	
  3632  058F                     l7859:	
  3633  058F  1283               	bcf	status, 5	;RP0=0, select bank0
  3634  0590  1303               	bcf	status, 6	;RP1=0, select bank0
  3635  0591  1C85               	btfss	(41/8),(41)&7
  3636  0592  2D94               	goto	u4111
  3637  0593  2D95               	goto	u4110
  3638  0594                     u4111:
  3639  0594  2D78               	goto	l7855
  3640  0595                     u4110:
  3641  0595  2D96               	goto	l7861
  3642                           	
  3643  0596                     l1514:	
  3644                           	line	107
  3645                           	
  3646  0596                     l7861:	
  3647                           ;keypad.c: 106: }
  3648                           ;keypad.c: 107: return '4';
  3649  0596  3034               	movlw	(034h)
  3650  0597  2FFF               	goto	l1510
  3651                           	
  3652  0598                     l7863:	
  3653  0598  2FFF               	goto	l1510
  3654                           	line	108
  3655                           	
  3656  0599                     l1511:	
  3657                           	line	109
  3658                           ;keypad.c: 108: }
  3659                           ;keypad.c: 109: if(!Row3)
  3660  0599  1905               	btfsc	(42/8),(42)&7
  3661  059A  2D9C               	goto	u4121
  3662  059B  2D9D               	goto	u4120
  3663  059C                     u4121:
  3664  059C  2DC0               	goto	l1515
  3665  059D                     u4120:
  3666  059D  2DB6               	goto	l7871
  3667                           	line	111
  3668                           	
  3669  059E                     l7865:	
  3670                           ;keypad.c: 110: {
  3671                           ;keypad.c: 111: while(!Row3)
  3672  059E  2DB6               	goto	l7871
  3673                           	
  3674  059F                     l1517:	
  3675                           	line	113
  3676                           	
  3677  059F                     l7867:	
  3678                           ;keypad.c: 112: {
  3679                           ;keypad.c: 113: *Var1 = ++ButtonPressedTime;
  3680  059F  3001               	movlw	low(01h)
  3681  05A0  07F2               	addwf	(FetchKey@ButtonPressedTime),f
  3682  05A1  1803               	skipnc
  3683  05A2  0AF3               	incf	(FetchKey@ButtonPressedTime+1),f
  3684  05A3  3000               	movlw	high(01h)
  3685  05A4  07F3               	addwf	(FetchKey@ButtonPressedTime+1),f
  3686  05A5  0874               	movf	(FetchKey@Var1),w
  3687  05A6  0084               	movwf	fsr0
  3688  05A7  0872               	movf	((FetchKey@ButtonPressedTime)),w
  3689  05A8  1383               	bcf	status, 7	;select IRP bank0
  3690  05A9  0080               	movwf	indf
  3691  05AA  0A84               	incf	fsr0,f
  3692  05AB  0873               	movf	((FetchKey@ButtonPressedTime+1)),w
  3693  05AC  0080               	movwf	indf
  3694                           	line	114
  3695                           	
  3696  05AD                     l7869:	
  3697                           ;keypad.c: 114: _delay((unsigned long)((1)*(20000000UL/4000.0)));
  3698                           	opt asmopt_off
  3699  05AD  3007               movlw	7
  3700  05AE  00F1               movwf	((??_FetchKey+0)+0+1),f
  3701  05AF  307D               	movlw	125
  3702  05B0  00F0               movwf	((??_FetchKey+0)+0),f
  3703  05B1                     u5197:
  3704  05B1  0BF0               	decfsz	((??_FetchKey+0)+0),f
  3705  05B2  2DB1               	goto	u5197
  3706  05B3  0BF1               	decfsz	((??_FetchKey+0)+0+1),f
  3707  05B4  2DB1               	goto	u5197
  3708                           opt asmopt_on
  3709                           
  3710  05B5  2DB6               	goto	l7871
  3711                           	line	115
  3712                           	
  3713  05B6                     l1516:	
  3714                           	line	111
  3715                           	
  3716  05B6                     l7871:	
  3717  05B6  1283               	bcf	status, 5	;RP0=0, select bank0
  3718  05B7  1303               	bcf	status, 6	;RP1=0, select bank0
  3719  05B8  1D05               	btfss	(42/8),(42)&7
  3720  05B9  2DBB               	goto	u4131
  3721  05BA  2DBC               	goto	u4130
  3722  05BB                     u4131:
  3723  05BB  2D9F               	goto	l7867
  3724  05BC                     u4130:
  3725  05BC  2DBD               	goto	l7873
  3726                           	
  3727  05BD                     l1518:	
  3728                           	line	116
  3729                           	
  3730  05BD                     l7873:	
  3731                           ;keypad.c: 115: }
  3732                           ;keypad.c: 116: return '7';
  3733  05BD  3037               	movlw	(037h)
  3734  05BE  2FFF               	goto	l1510
  3735                           	
  3736  05BF                     l7875:	
  3737  05BF  2FFF               	goto	l1510
  3738                           	line	117
  3739                           	
  3740  05C0                     l1515:	
  3741                           	line	118
  3742                           ;keypad.c: 117: }
  3743                           ;keypad.c: 118: if(!Row4)
  3744  05C0  1985               	btfsc	(43/8),(43)&7
  3745  05C1  2DC3               	goto	u4141
  3746  05C2  2DC4               	goto	u4140
  3747  05C3                     u4141:
  3748  05C3  2DE8               	goto	l1523
  3749  05C4                     u4140:
  3750  05C4  2DDD               	goto	l7883
  3751                           	line	120
  3752                           	
  3753  05C5                     l7877:	
  3754                           ;keypad.c: 119: {
  3755                           ;keypad.c: 120: while(!Row4)
  3756  05C5  2DDD               	goto	l7883
  3757                           	
  3758  05C6                     l1521:	
  3759                           	line	122
  3760                           	
  3761  05C6                     l7879:	
  3762                           ;keypad.c: 121: {
  3763                           ;keypad.c: 122: *Var1 = ++ButtonPressedTime;
  3764  05C6  3001               	movlw	low(01h)
  3765  05C7  07F2               	addwf	(FetchKey@ButtonPressedTime),f
  3766  05C8  1803               	skipnc
  3767  05C9  0AF3               	incf	(FetchKey@ButtonPressedTime+1),f
  3768  05CA  3000               	movlw	high(01h)
  3769  05CB  07F3               	addwf	(FetchKey@ButtonPressedTime+1),f
  3770  05CC  0874               	movf	(FetchKey@Var1),w
  3771  05CD  0084               	movwf	fsr0
  3772  05CE  0872               	movf	((FetchKey@ButtonPressedTime)),w
  3773  05CF  1383               	bcf	status, 7	;select IRP bank0
  3774  05D0  0080               	movwf	indf
  3775  05D1  0A84               	incf	fsr0,f
  3776  05D2  0873               	movf	((FetchKey@ButtonPressedTime+1)),w
  3777  05D3  0080               	movwf	indf
  3778                           	line	123
  3779                           	
  3780  05D4                     l7881:	
  3781                           ;keypad.c: 123: _delay((unsigned long)((1)*(20000000UL/4000.0)));
  3782                           	opt asmopt_off
  3783  05D4  3007               movlw	7
  3784  05D5  00F1               movwf	((??_FetchKey+0)+0+1),f
  3785  05D6  307D               	movlw	125
  3786  05D7  00F0               movwf	((??_FetchKey+0)+0),f
  3787  05D8                     u5207:
  3788  05D8  0BF0               	decfsz	((??_FetchKey+0)+0),f
  3789  05D9  2DD8               	goto	u5207
  3790  05DA  0BF1               	decfsz	((??_FetchKey+0)+0+1),f
  3791  05DB  2DD8               	goto	u5207
  3792                           opt asmopt_on
  3793                           
  3794  05DC  2DDD               	goto	l7883
  3795                           	line	124
  3796                           	
  3797  05DD                     l1520:	
  3798                           	line	120
  3799                           	
  3800  05DD                     l7883:	
  3801  05DD  1283               	bcf	status, 5	;RP0=0, select bank0
  3802  05DE  1303               	bcf	status, 6	;RP1=0, select bank0
  3803  05DF  1D85               	btfss	(43/8),(43)&7
  3804  05E0  2DE2               	goto	u4151
  3805  05E1  2DE3               	goto	u4150
  3806  05E2                     u4151:
  3807  05E2  2DC6               	goto	l7879
  3808  05E3                     u4150:
  3809  05E3  2DE4               	goto	l7885
  3810                           	
  3811  05E4                     l1522:	
  3812                           	line	125
  3813                           	
  3814  05E4                     l7885:	
  3815                           ;keypad.c: 124: }
  3816                           ;keypad.c: 125: return '*';
  3817  05E4  302A               	movlw	(02Ah)
  3818  05E5  2FFF               	goto	l1510
  3819                           	
  3820  05E6                     l7887:	
  3821  05E6  2FFF               	goto	l1510
  3822                           	line	126
  3823                           	
  3824  05E7                     l1519:	
  3825                           	line	128
  3826                           ;keypad.c: 126: }
  3827                           ;keypad.c: 128: while(!Row1 && !Row2 && !Row3 && !Row4);
  3828  05E7  2DE8               	goto	l1523
  3829                           	
  3830  05E8                     l1524:	
  3831                           	
  3832  05E8                     l1523:	
  3833  05E8  1805               	btfsc	(40/8),(40)&7
  3834  05E9  2DEB               	goto	u4161
  3835  05EA  2DEC               	goto	u4160
  3836  05EB                     u4161:
  3837  05EB  2DF9               	goto	l1527
  3838  05EC                     u4160:
  3839                           	
  3840  05EC                     l7889:	
  3841  05EC  1885               	btfsc	(41/8),(41)&7
  3842  05ED  2DEF               	goto	u4171
  3843  05EE  2DF0               	goto	u4170
  3844  05EF                     u4171:
  3845  05EF  2DF9               	goto	l1527
  3846  05F0                     u4170:
  3847                           	
  3848  05F0                     l7891:	
  3849  05F0  1905               	btfsc	(42/8),(42)&7
  3850  05F1  2DF3               	goto	u4181
  3851  05F2  2DF4               	goto	u4180
  3852  05F3                     u4181:
  3853  05F3  2DF9               	goto	l1527
  3854  05F4                     u4180:
  3855                           	
  3856  05F4                     l7893:	
  3857  05F4  1D85               	btfss	(43/8),(43)&7
  3858  05F5  2DF7               	goto	u4191
  3859  05F6  2DF8               	goto	u4190
  3860  05F7                     u4191:
  3861  05F7  2DE8               	goto	l1523
  3862  05F8                     u4190:
  3863  05F8  2DF9               	goto	l1527
  3864                           	
  3865  05F9                     l1526:	
  3866                           	
  3867  05F9                     l1527:	
  3868                           	line	129
  3869                           ;keypad.c: 129: Col1 = 1; Col2 = 0; Col3 = 1; Col4 = 1;
  3870  05F9  1407               	bsf	(56/8),(56)&7
  3871  05FA  1087               	bcf	(57/8),(57)&7
  3872  05FB  1507               	bsf	(58/8),(58)&7
  3873  05FC  1587               	bsf	(59/8),(59)&7
  3874                           	line	130
  3875                           ;keypad.c: 130: if(!Row1)
  3876  05FD  1805               	btfsc	(40/8),(40)&7
  3877  05FE  2E00               	goto	u4201
  3878  05FF  2E01               	goto	u4200
  3879  0600                     u4201:
  3880  0600  2E24               	goto	l1528
  3881  0601                     u4200:
  3882  0601  2E1A               	goto	l7901
  3883                           	line	132
  3884                           	
  3885  0602                     l7895:	
  3886                           ;keypad.c: 131: {
  3887                           ;keypad.c: 132: while(!Row1)
  3888  0602  2E1A               	goto	l7901
  3889                           	
  3890  0603                     l1530:	
  3891                           	line	134
  3892                           	
  3893  0603                     l7897:	
  3894                           ;keypad.c: 133: {
  3895                           ;keypad.c: 134: *Var1 = ++ButtonPressedTime;
  3896  0603  3001               	movlw	low(01h)
  3897  0604  07F2               	addwf	(FetchKey@ButtonPressedTime),f
  3898  0605  1803               	skipnc
  3899  0606  0AF3               	incf	(FetchKey@ButtonPressedTime+1),f
  3900  0607  3000               	movlw	high(01h)
  3901  0608  07F3               	addwf	(FetchKey@ButtonPressedTime+1),f
  3902  0609  0874               	movf	(FetchKey@Var1),w
  3903  060A  0084               	movwf	fsr0
  3904  060B  0872               	movf	((FetchKey@ButtonPressedTime)),w
  3905  060C  1383               	bcf	status, 7	;select IRP bank0
  3906  060D  0080               	movwf	indf
  3907  060E  0A84               	incf	fsr0,f
  3908  060F  0873               	movf	((FetchKey@ButtonPressedTime+1)),w
  3909  0610  0080               	movwf	indf
  3910                           	line	135
  3911                           	
  3912  0611                     l7899:	
  3913                           ;keypad.c: 135: _delay((unsigned long)((1)*(20000000UL/4000.0)));
  3914                           	opt asmopt_off
  3915  0611  3007               movlw	7
  3916  0612  00F1               movwf	((??_FetchKey+0)+0+1),f
  3917  0613  307D               	movlw	125
  3918  0614  00F0               movwf	((??_FetchKey+0)+0),f
  3919  0615                     u5217:
  3920  0615  0BF0               	decfsz	((??_FetchKey+0)+0),f
  3921  0616  2E15               	goto	u5217
  3922  0617  0BF1               	decfsz	((??_FetchKey+0)+0+1),f
  3923  0618  2E15               	goto	u5217
  3924                           opt asmopt_on
  3925                           
  3926  0619  2E1A               	goto	l7901
  3927                           	line	136
  3928                           	
  3929  061A                     l1529:	
  3930                           	line	132
  3931                           	
  3932  061A                     l7901:	
  3933  061A  1283               	bcf	status, 5	;RP0=0, select bank0
  3934  061B  1303               	bcf	status, 6	;RP1=0, select bank0
  3935  061C  1C05               	btfss	(40/8),(40)&7
  3936  061D  2E1F               	goto	u4211
  3937  061E  2E20               	goto	u4210
  3938  061F                     u4211:
  3939  061F  2E03               	goto	l7897
  3940  0620                     u4210:
  3941  0620  2E21               	goto	l7903
  3942                           	
  3943  0621                     l1531:	
  3944                           	line	137
  3945                           	
  3946  0621                     l7903:	
  3947                           ;keypad.c: 136: }
  3948                           ;keypad.c: 137: return '2';
  3949  0621  3032               	movlw	(032h)
  3950  0622  2FFF               	goto	l1510
  3951                           	
  3952  0623                     l7905:	
  3953  0623  2FFF               	goto	l1510
  3954                           	line	138
  3955                           	
  3956  0624                     l1528:	
  3957                           	line	139
  3958                           ;keypad.c: 138: }
  3959                           ;keypad.c: 139: if(!Row2)
  3960  0624  1885               	btfsc	(41/8),(41)&7
  3961  0625  2E27               	goto	u4221
  3962  0626  2E28               	goto	u4220
  3963  0627                     u4221:
  3964  0627  2E4B               	goto	l1532
  3965  0628                     u4220:
  3966  0628  2E41               	goto	l7913
  3967                           	line	141
  3968                           	
  3969  0629                     l7907:	
  3970                           ;keypad.c: 140: {
  3971                           ;keypad.c: 141: while(!Row2)
  3972  0629  2E41               	goto	l7913
  3973                           	
  3974  062A                     l1534:	
  3975                           	line	143
  3976                           	
  3977  062A                     l7909:	
  3978                           ;keypad.c: 142: {
  3979                           ;keypad.c: 143: *Var1 = ++ButtonPressedTime;
  3980  062A  3001               	movlw	low(01h)
  3981  062B  07F2               	addwf	(FetchKey@ButtonPressedTime),f
  3982  062C  1803               	skipnc
  3983  062D  0AF3               	incf	(FetchKey@ButtonPressedTime+1),f
  3984  062E  3000               	movlw	high(01h)
  3985  062F  07F3               	addwf	(FetchKey@ButtonPressedTime+1),f
  3986  0630  0874               	movf	(FetchKey@Var1),w
  3987  0631  0084               	movwf	fsr0
  3988  0632  0872               	movf	((FetchKey@ButtonPressedTime)),w
  3989  0633  1383               	bcf	status, 7	;select IRP bank0
  3990  0634  0080               	movwf	indf
  3991  0635  0A84               	incf	fsr0,f
  3992  0636  0873               	movf	((FetchKey@ButtonPressedTime+1)),w
  3993  0637  0080               	movwf	indf
  3994                           	line	144
  3995                           	
  3996  0638                     l7911:	
  3997                           ;keypad.c: 144: _delay((unsigned long)((1)*(20000000UL/4000.0)));
  3998                           	opt asmopt_off
  3999  0638  3007               movlw	7
  4000  0639  00F1               movwf	((??_FetchKey+0)+0+1),f
  4001  063A  307D               	movlw	125
  4002  063B  00F0               movwf	((??_FetchKey+0)+0),f
  4003  063C                     u5227:
  4004  063C  0BF0               	decfsz	((??_FetchKey+0)+0),f
  4005  063D  2E3C               	goto	u5227
  4006  063E  0BF1               	decfsz	((??_FetchKey+0)+0+1),f
  4007  063F  2E3C               	goto	u5227
  4008                           opt asmopt_on
  4009                           
  4010  0640  2E41               	goto	l7913
  4011                           	line	145
  4012                           	
  4013  0641                     l1533:	
  4014                           	line	141
  4015                           	
  4016  0641                     l7913:	
  4017  0641  1283               	bcf	status, 5	;RP0=0, select bank0
  4018  0642  1303               	bcf	status, 6	;RP1=0, select bank0
  4019  0643  1C85               	btfss	(41/8),(41)&7
  4020  0644  2E46               	goto	u4231
  4021  0645  2E47               	goto	u4230
  4022  0646                     u4231:
  4023  0646  2E2A               	goto	l7909
  4024  0647                     u4230:
  4025  0647  2E48               	goto	l7915
  4026                           	
  4027  0648                     l1535:	
  4028                           	line	146
  4029                           	
  4030  0648                     l7915:	
  4031                           ;keypad.c: 145: }
  4032                           ;keypad.c: 146: return '5';
  4033  0648  3035               	movlw	(035h)
  4034  0649  2FFF               	goto	l1510
  4035                           	
  4036  064A                     l7917:	
  4037  064A  2FFF               	goto	l1510
  4038                           	line	147
  4039                           	
  4040  064B                     l1532:	
  4041                           	line	148
  4042                           ;keypad.c: 147: }
  4043                           ;keypad.c: 148: if(!Row3)
  4044  064B  1905               	btfsc	(42/8),(42)&7
  4045  064C  2E4E               	goto	u4241
  4046  064D  2E4F               	goto	u4240
  4047  064E                     u4241:
  4048  064E  2E72               	goto	l1536
  4049  064F                     u4240:
  4050  064F  2E68               	goto	l7925
  4051                           	line	150
  4052                           	
  4053  0650                     l7919:	
  4054                           ;keypad.c: 149: {
  4055                           ;keypad.c: 150: while(!Row3)
  4056  0650  2E68               	goto	l7925
  4057                           	
  4058  0651                     l1538:	
  4059                           	line	152
  4060                           	
  4061  0651                     l7921:	
  4062                           ;keypad.c: 151: {
  4063                           ;keypad.c: 152: *Var1 = ++ButtonPressedTime;
  4064  0651  3001               	movlw	low(01h)
  4065  0652  07F2               	addwf	(FetchKey@ButtonPressedTime),f
  4066  0653  1803               	skipnc
  4067  0654  0AF3               	incf	(FetchKey@ButtonPressedTime+1),f
  4068  0655  3000               	movlw	high(01h)
  4069  0656  07F3               	addwf	(FetchKey@ButtonPressedTime+1),f
  4070  0657  0874               	movf	(FetchKey@Var1),w
  4071  0658  0084               	movwf	fsr0
  4072  0659  0872               	movf	((FetchKey@ButtonPressedTime)),w
  4073  065A  1383               	bcf	status, 7	;select IRP bank0
  4074  065B  0080               	movwf	indf
  4075  065C  0A84               	incf	fsr0,f
  4076  065D  0873               	movf	((FetchKey@ButtonPressedTime+1)),w
  4077  065E  0080               	movwf	indf
  4078                           	line	153
  4079                           	
  4080  065F                     l7923:	
  4081                           ;keypad.c: 153: _delay((unsigned long)((1)*(20000000UL/4000.0)));
  4082                           	opt asmopt_off
  4083  065F  3007               movlw	7
  4084  0660  00F1               movwf	((??_FetchKey+0)+0+1),f
  4085  0661  307D               	movlw	125
  4086  0662  00F0               movwf	((??_FetchKey+0)+0),f
  4087  0663                     u5237:
  4088  0663  0BF0               	decfsz	((??_FetchKey+0)+0),f
  4089  0664  2E63               	goto	u5237
  4090  0665  0BF1               	decfsz	((??_FetchKey+0)+0+1),f
  4091  0666  2E63               	goto	u5237
  4092                           opt asmopt_on
  4093                           
  4094  0667  2E68               	goto	l7925
  4095                           	line	154
  4096                           	
  4097  0668                     l1537:	
  4098                           	line	150
  4099                           	
  4100  0668                     l7925:	
  4101  0668  1283               	bcf	status, 5	;RP0=0, select bank0
  4102  0669  1303               	bcf	status, 6	;RP1=0, select bank0
  4103  066A  1D05               	btfss	(42/8),(42)&7
  4104  066B  2E6D               	goto	u4251
  4105  066C  2E6E               	goto	u4250
  4106  066D                     u4251:
  4107  066D  2E51               	goto	l7921
  4108  066E                     u4250:
  4109  066E  2E6F               	goto	l7927
  4110                           	
  4111  066F                     l1539:	
  4112                           	line	155
  4113                           	
  4114  066F                     l7927:	
  4115                           ;keypad.c: 154: }
  4116                           ;keypad.c: 155: return '8';
  4117  066F  3038               	movlw	(038h)
  4118  0670  2FFF               	goto	l1510
  4119                           	
  4120  0671                     l7929:	
  4121  0671  2FFF               	goto	l1510
  4122                           	line	156
  4123                           	
  4124  0672                     l1536:	
  4125                           	line	157
  4126                           ;keypad.c: 156: }
  4127                           ;keypad.c: 157: if(!Row4)
  4128  0672  1985               	btfsc	(43/8),(43)&7
  4129  0673  2E75               	goto	u4261
  4130  0674  2E76               	goto	u4260
  4131  0675                     u4261:
  4132  0675  2E9A               	goto	l1544
  4133  0676                     u4260:
  4134  0676  2E8F               	goto	l7937
  4135                           	line	159
  4136                           	
  4137  0677                     l7931:	
  4138                           ;keypad.c: 158: {
  4139                           ;keypad.c: 159: while(!Row4)
  4140  0677  2E8F               	goto	l7937
  4141                           	
  4142  0678                     l1542:	
  4143                           	line	161
  4144                           	
  4145  0678                     l7933:	
  4146                           ;keypad.c: 160: {
  4147                           ;keypad.c: 161: *Var1 = ++ButtonPressedTime;
  4148  0678  3001               	movlw	low(01h)
  4149  0679  07F2               	addwf	(FetchKey@ButtonPressedTime),f
  4150  067A  1803               	skipnc
  4151  067B  0AF3               	incf	(FetchKey@ButtonPressedTime+1),f
  4152  067C  3000               	movlw	high(01h)
  4153  067D  07F3               	addwf	(FetchKey@ButtonPressedTime+1),f
  4154  067E  0874               	movf	(FetchKey@Var1),w
  4155  067F  0084               	movwf	fsr0
  4156  0680  0872               	movf	((FetchKey@ButtonPressedTime)),w
  4157  0681  1383               	bcf	status, 7	;select IRP bank0
  4158  0682  0080               	movwf	indf
  4159  0683  0A84               	incf	fsr0,f
  4160  0684  0873               	movf	((FetchKey@ButtonPressedTime+1)),w
  4161  0685  0080               	movwf	indf
  4162                           	line	162
  4163                           	
  4164  0686                     l7935:	
  4165                           ;keypad.c: 162: _delay((unsigned long)((1)*(20000000UL/4000.0)));
  4166                           	opt asmopt_off
  4167  0686  3007               movlw	7
  4168  0687  00F1               movwf	((??_FetchKey+0)+0+1),f
  4169  0688  307D               	movlw	125
  4170  0689  00F0               movwf	((??_FetchKey+0)+0),f
  4171  068A                     u5247:
  4172  068A  0BF0               	decfsz	((??_FetchKey+0)+0),f
  4173  068B  2E8A               	goto	u5247
  4174  068C  0BF1               	decfsz	((??_FetchKey+0)+0+1),f
  4175  068D  2E8A               	goto	u5247
  4176                           opt asmopt_on
  4177                           
  4178  068E  2E8F               	goto	l7937
  4179                           	line	163
  4180                           	
  4181  068F                     l1541:	
  4182                           	line	159
  4183                           	
  4184  068F                     l7937:	
  4185  068F  1283               	bcf	status, 5	;RP0=0, select bank0
  4186  0690  1303               	bcf	status, 6	;RP1=0, select bank0
  4187  0691  1D85               	btfss	(43/8),(43)&7
  4188  0692  2E94               	goto	u4271
  4189  0693  2E95               	goto	u4270
  4190  0694                     u4271:
  4191  0694  2E78               	goto	l7933
  4192  0695                     u4270:
  4193  0695  2E96               	goto	l7939
  4194                           	
  4195  0696                     l1543:	
  4196                           	line	164
  4197                           	
  4198  0696                     l7939:	
  4199                           ;keypad.c: 163: }
  4200                           ;keypad.c: 164: return '0';
  4201  0696  3030               	movlw	(030h)
  4202  0697  2FFF               	goto	l1510
  4203                           	
  4204  0698                     l7941:	
  4205  0698  2FFF               	goto	l1510
  4206                           	line	165
  4207                           	
  4208  0699                     l1540:	
  4209                           	line	167
  4210                           ;keypad.c: 165: }
  4211                           ;keypad.c: 167: while(!Row1 && !Row2 && !Row3 && !Row4);
  4212  0699  2E9A               	goto	l1544
  4213                           	
  4214  069A                     l1545:	
  4215                           	
  4216  069A                     l1544:	
  4217  069A  1805               	btfsc	(40/8),(40)&7
  4218  069B  2E9D               	goto	u4281
  4219  069C  2E9E               	goto	u4280
  4220  069D                     u4281:
  4221  069D  2EAB               	goto	l1548
  4222  069E                     u4280:
  4223                           	
  4224  069E                     l7943:	
  4225  069E  1885               	btfsc	(41/8),(41)&7
  4226  069F  2EA1               	goto	u4291
  4227  06A0  2EA2               	goto	u4290
  4228  06A1                     u4291:
  4229  06A1  2EAB               	goto	l1548
  4230  06A2                     u4290:
  4231                           	
  4232  06A2                     l7945:	
  4233  06A2  1905               	btfsc	(42/8),(42)&7
  4234  06A3  2EA5               	goto	u4301
  4235  06A4  2EA6               	goto	u4300
  4236  06A5                     u4301:
  4237  06A5  2EAB               	goto	l1548
  4238  06A6                     u4300:
  4239                           	
  4240  06A6                     l7947:	
  4241  06A6  1D85               	btfss	(43/8),(43)&7
  4242  06A7  2EA9               	goto	u4311
  4243  06A8  2EAA               	goto	u4310
  4244  06A9                     u4311:
  4245  06A9  2E9A               	goto	l1544
  4246  06AA                     u4310:
  4247  06AA  2EAB               	goto	l1548
  4248                           	
  4249  06AB                     l1547:	
  4250                           	
  4251  06AB                     l1548:	
  4252                           	line	168
  4253                           ;keypad.c: 168: Col1 = 1; Col2 = 1; Col3 = 0; Col4 = 1;
  4254  06AB  1407               	bsf	(56/8),(56)&7
  4255  06AC  1487               	bsf	(57/8),(57)&7
  4256  06AD  1107               	bcf	(58/8),(58)&7
  4257  06AE  1587               	bsf	(59/8),(59)&7
  4258                           	line	169
  4259                           ;keypad.c: 169: if(!Row1)
  4260  06AF  1805               	btfsc	(40/8),(40)&7
  4261  06B0  2EB2               	goto	u4321
  4262  06B1  2EB3               	goto	u4320
  4263  06B2                     u4321:
  4264  06B2  2ED6               	goto	l1549
  4265  06B3                     u4320:
  4266  06B3  2ECC               	goto	l7955
  4267                           	line	171
  4268                           	
  4269  06B4                     l7949:	
  4270                           ;keypad.c: 170: {
  4271                           ;keypad.c: 171: while(!Row1)
  4272  06B4  2ECC               	goto	l7955
  4273                           	
  4274  06B5                     l1551:	
  4275                           	line	173
  4276                           	
  4277  06B5                     l7951:	
  4278                           ;keypad.c: 172: {
  4279                           ;keypad.c: 173: *Var1 = ++ButtonPressedTime;
  4280  06B5  3001               	movlw	low(01h)
  4281  06B6  07F2               	addwf	(FetchKey@ButtonPressedTime),f
  4282  06B7  1803               	skipnc
  4283  06B8  0AF3               	incf	(FetchKey@ButtonPressedTime+1),f
  4284  06B9  3000               	movlw	high(01h)
  4285  06BA  07F3               	addwf	(FetchKey@ButtonPressedTime+1),f
  4286  06BB  0874               	movf	(FetchKey@Var1),w
  4287  06BC  0084               	movwf	fsr0
  4288  06BD  0872               	movf	((FetchKey@ButtonPressedTime)),w
  4289  06BE  1383               	bcf	status, 7	;select IRP bank0
  4290  06BF  0080               	movwf	indf
  4291  06C0  0A84               	incf	fsr0,f
  4292  06C1  0873               	movf	((FetchKey@ButtonPressedTime+1)),w
  4293  06C2  0080               	movwf	indf
  4294                           	line	174
  4295                           	
  4296  06C3                     l7953:	
  4297                           ;keypad.c: 174: _delay((unsigned long)((1)*(20000000UL/4000.0)));
  4298                           	opt asmopt_off
  4299  06C3  3007               movlw	7
  4300  06C4  00F1               movwf	((??_FetchKey+0)+0+1),f
  4301  06C5  307D               	movlw	125
  4302  06C6  00F0               movwf	((??_FetchKey+0)+0),f
  4303  06C7                     u5257:
  4304  06C7  0BF0               	decfsz	((??_FetchKey+0)+0),f
  4305  06C8  2EC7               	goto	u5257
  4306  06C9  0BF1               	decfsz	((??_FetchKey+0)+0+1),f
  4307  06CA  2EC7               	goto	u5257
  4308                           opt asmopt_on
  4309                           
  4310  06CB  2ECC               	goto	l7955
  4311                           	line	175
  4312                           	
  4313  06CC                     l1550:	
  4314                           	line	171
  4315                           	
  4316  06CC                     l7955:	
  4317  06CC  1283               	bcf	status, 5	;RP0=0, select bank0
  4318  06CD  1303               	bcf	status, 6	;RP1=0, select bank0
  4319  06CE  1C05               	btfss	(40/8),(40)&7
  4320  06CF  2ED1               	goto	u4331
  4321  06D0  2ED2               	goto	u4330
  4322  06D1                     u4331:
  4323  06D1  2EB5               	goto	l7951
  4324  06D2                     u4330:
  4325  06D2  2ED3               	goto	l7957
  4326                           	
  4327  06D3                     l1552:	
  4328                           	line	176
  4329                           	
  4330  06D3                     l7957:	
  4331                           ;keypad.c: 175: }
  4332                           ;keypad.c: 176: return '3';
  4333  06D3  3033               	movlw	(033h)
  4334  06D4  2FFF               	goto	l1510
  4335                           	
  4336  06D5                     l7959:	
  4337  06D5  2FFF               	goto	l1510
  4338                           	line	177
  4339                           	
  4340  06D6                     l1549:	
  4341                           	line	178
  4342                           ;keypad.c: 177: }
  4343                           ;keypad.c: 178: if(!Row2)
  4344  06D6  1885               	btfsc	(41/8),(41)&7
  4345  06D7  2ED9               	goto	u4341
  4346  06D8  2EDA               	goto	u4340
  4347  06D9                     u4341:
  4348  06D9  2EFD               	goto	l1553
  4349  06DA                     u4340:
  4350  06DA  2EF3               	goto	l7967
  4351                           	line	180
  4352                           	
  4353  06DB                     l7961:	
  4354                           ;keypad.c: 179: {
  4355                           ;keypad.c: 180: while(!Row2)
  4356  06DB  2EF3               	goto	l7967
  4357                           	
  4358  06DC                     l1555:	
  4359                           	line	182
  4360                           	
  4361  06DC                     l7963:	
  4362                           ;keypad.c: 181: {
  4363                           ;keypad.c: 182: *Var1 = ++ButtonPressedTime;
  4364  06DC  3001               	movlw	low(01h)
  4365  06DD  07F2               	addwf	(FetchKey@ButtonPressedTime),f
  4366  06DE  1803               	skipnc
  4367  06DF  0AF3               	incf	(FetchKey@ButtonPressedTime+1),f
  4368  06E0  3000               	movlw	high(01h)
  4369  06E1  07F3               	addwf	(FetchKey@ButtonPressedTime+1),f
  4370  06E2  0874               	movf	(FetchKey@Var1),w
  4371  06E3  0084               	movwf	fsr0
  4372  06E4  0872               	movf	((FetchKey@ButtonPressedTime)),w
  4373  06E5  1383               	bcf	status, 7	;select IRP bank0
  4374  06E6  0080               	movwf	indf
  4375  06E7  0A84               	incf	fsr0,f
  4376  06E8  0873               	movf	((FetchKey@ButtonPressedTime+1)),w
  4377  06E9  0080               	movwf	indf
  4378                           	line	183
  4379                           	
  4380  06EA                     l7965:	
  4381                           ;keypad.c: 183: _delay((unsigned long)((1)*(20000000UL/4000.0)));
  4382                           	opt asmopt_off
  4383  06EA  3007               movlw	7
  4384  06EB  00F1               movwf	((??_FetchKey+0)+0+1),f
  4385  06EC  307D               	movlw	125
  4386  06ED  00F0               movwf	((??_FetchKey+0)+0),f
  4387  06EE                     u5267:
  4388  06EE  0BF0               	decfsz	((??_FetchKey+0)+0),f
  4389  06EF  2EEE               	goto	u5267
  4390  06F0  0BF1               	decfsz	((??_FetchKey+0)+0+1),f
  4391  06F1  2EEE               	goto	u5267
  4392                           opt asmopt_on
  4393                           
  4394  06F2  2EF3               	goto	l7967
  4395                           	line	184
  4396                           	
  4397  06F3                     l1554:	
  4398                           	line	180
  4399                           	
  4400  06F3                     l7967:	
  4401  06F3  1283               	bcf	status, 5	;RP0=0, select bank0
  4402  06F4  1303               	bcf	status, 6	;RP1=0, select bank0
  4403  06F5  1C85               	btfss	(41/8),(41)&7
  4404  06F6  2EF8               	goto	u4351
  4405  06F7  2EF9               	goto	u4350
  4406  06F8                     u4351:
  4407  06F8  2EDC               	goto	l7963
  4408  06F9                     u4350:
  4409  06F9  2EFA               	goto	l7969
  4410                           	
  4411  06FA                     l1556:	
  4412                           	line	185
  4413                           	
  4414  06FA                     l7969:	
  4415                           ;keypad.c: 184: }
  4416                           ;keypad.c: 185: return '6';
  4417  06FA  3036               	movlw	(036h)
  4418  06FB  2FFF               	goto	l1510
  4419                           	
  4420  06FC                     l7971:	
  4421  06FC  2FFF               	goto	l1510
  4422                           	line	186
  4423                           	
  4424  06FD                     l1553:	
  4425                           	line	187
  4426                           ;keypad.c: 186: }
  4427                           ;keypad.c: 187: if(!Row3)
  4428  06FD  1905               	btfsc	(42/8),(42)&7
  4429  06FE  2F00               	goto	u4361
  4430  06FF  2F01               	goto	u4360
  4431  0700                     u4361:
  4432  0700  2F24               	goto	l1557
  4433  0701                     u4360:
  4434  0701  2F1A               	goto	l7979
  4435                           	line	189
  4436                           	
  4437  0702                     l7973:	
  4438                           ;keypad.c: 188: {
  4439                           ;keypad.c: 189: while(!Row3)
  4440  0702  2F1A               	goto	l7979
  4441                           	
  4442  0703                     l1559:	
  4443                           	line	191
  4444                           	
  4445  0703                     l7975:	
  4446                           ;keypad.c: 190: {
  4447                           ;keypad.c: 191: *Var1 = ++ButtonPressedTime;
  4448  0703  3001               	movlw	low(01h)
  4449  0704  07F2               	addwf	(FetchKey@ButtonPressedTime),f
  4450  0705  1803               	skipnc
  4451  0706  0AF3               	incf	(FetchKey@ButtonPressedTime+1),f
  4452  0707  3000               	movlw	high(01h)
  4453  0708  07F3               	addwf	(FetchKey@ButtonPressedTime+1),f
  4454  0709  0874               	movf	(FetchKey@Var1),w
  4455  070A  0084               	movwf	fsr0
  4456  070B  0872               	movf	((FetchKey@ButtonPressedTime)),w
  4457  070C  1383               	bcf	status, 7	;select IRP bank0
  4458  070D  0080               	movwf	indf
  4459  070E  0A84               	incf	fsr0,f
  4460  070F  0873               	movf	((FetchKey@ButtonPressedTime+1)),w
  4461  0710  0080               	movwf	indf
  4462                           	line	192
  4463                           	
  4464  0711                     l7977:	
  4465                           ;keypad.c: 192: _delay((unsigned long)((1)*(20000000UL/4000.0)));
  4466                           	opt asmopt_off
  4467  0711  3007               movlw	7
  4468  0712  00F1               movwf	((??_FetchKey+0)+0+1),f
  4469  0713  307D               	movlw	125
  4470  0714  00F0               movwf	((??_FetchKey+0)+0),f
  4471  0715                     u5277:
  4472  0715  0BF0               	decfsz	((??_FetchKey+0)+0),f
  4473  0716  2F15               	goto	u5277
  4474  0717  0BF1               	decfsz	((??_FetchKey+0)+0+1),f
  4475  0718  2F15               	goto	u5277
  4476                           opt asmopt_on
  4477                           
  4478  0719  2F1A               	goto	l7979
  4479                           	line	193
  4480                           	
  4481  071A                     l1558:	
  4482                           	line	189
  4483                           	
  4484  071A                     l7979:	
  4485  071A  1283               	bcf	status, 5	;RP0=0, select bank0
  4486  071B  1303               	bcf	status, 6	;RP1=0, select bank0
  4487  071C  1D05               	btfss	(42/8),(42)&7
  4488  071D  2F1F               	goto	u4371
  4489  071E  2F20               	goto	u4370
  4490  071F                     u4371:
  4491  071F  2F03               	goto	l7975
  4492  0720                     u4370:
  4493  0720  2F21               	goto	l7981
  4494                           	
  4495  0721                     l1560:	
  4496                           	line	194
  4497                           	
  4498  0721                     l7981:	
  4499                           ;keypad.c: 193: }
  4500                           ;keypad.c: 194: return '9';
  4501  0721  3039               	movlw	(039h)
  4502  0722  2FFF               	goto	l1510
  4503                           	
  4504  0723                     l7983:	
  4505  0723  2FFF               	goto	l1510
  4506                           	line	195
  4507                           	
  4508  0724                     l1557:	
  4509                           	line	196
  4510                           ;keypad.c: 195: }
  4511                           ;keypad.c: 196: if(!Row4)
  4512  0724  1985               	btfsc	(43/8),(43)&7
  4513  0725  2F27               	goto	u4381
  4514  0726  2F28               	goto	u4380
  4515  0727                     u4381:
  4516  0727  2F4C               	goto	l1565
  4517  0728                     u4380:
  4518  0728  2F41               	goto	l7991
  4519                           	line	198
  4520                           	
  4521  0729                     l7985:	
  4522                           ;keypad.c: 197: {
  4523                           ;keypad.c: 198: while(!Row4)
  4524  0729  2F41               	goto	l7991
  4525                           	
  4526  072A                     l1563:	
  4527                           	line	200
  4528                           	
  4529  072A                     l7987:	
  4530                           ;keypad.c: 199: {
  4531                           ;keypad.c: 200: *Var1 = ++ButtonPressedTime;
  4532  072A  3001               	movlw	low(01h)
  4533  072B  07F2               	addwf	(FetchKey@ButtonPressedTime),f
  4534  072C  1803               	skipnc
  4535  072D  0AF3               	incf	(FetchKey@ButtonPressedTime+1),f
  4536  072E  3000               	movlw	high(01h)
  4537  072F  07F3               	addwf	(FetchKey@ButtonPressedTime+1),f
  4538  0730  0874               	movf	(FetchKey@Var1),w
  4539  0731  0084               	movwf	fsr0
  4540  0732  0872               	movf	((FetchKey@ButtonPressedTime)),w
  4541  0733  1383               	bcf	status, 7	;select IRP bank0
  4542  0734  0080               	movwf	indf
  4543  0735  0A84               	incf	fsr0,f
  4544  0736  0873               	movf	((FetchKey@ButtonPressedTime+1)),w
  4545  0737  0080               	movwf	indf
  4546                           	line	201
  4547                           	
  4548  0738                     l7989:	
  4549                           ;keypad.c: 201: _delay((unsigned long)((1)*(20000000UL/4000.0)));
  4550                           	opt asmopt_off
  4551  0738  3007               movlw	7
  4552  0739  00F1               movwf	((??_FetchKey+0)+0+1),f
  4553  073A  307D               	movlw	125
  4554  073B  00F0               movwf	((??_FetchKey+0)+0),f
  4555  073C                     u5287:
  4556  073C  0BF0               	decfsz	((??_FetchKey+0)+0),f
  4557  073D  2F3C               	goto	u5287
  4558  073E  0BF1               	decfsz	((??_FetchKey+0)+0+1),f
  4559  073F  2F3C               	goto	u5287
  4560                           opt asmopt_on
  4561                           
  4562  0740  2F41               	goto	l7991
  4563                           	line	202
  4564                           	
  4565  0741                     l1562:	
  4566                           	line	198
  4567                           	
  4568  0741                     l7991:	
  4569  0741  1283               	bcf	status, 5	;RP0=0, select bank0
  4570  0742  1303               	bcf	status, 6	;RP1=0, select bank0
  4571  0743  1D85               	btfss	(43/8),(43)&7
  4572  0744  2F46               	goto	u4391
  4573  0745  2F47               	goto	u4390
  4574  0746                     u4391:
  4575  0746  2F2A               	goto	l7987
  4576  0747                     u4390:
  4577  0747  2F48               	goto	l7993
  4578                           	
  4579  0748                     l1564:	
  4580                           	line	203
  4581                           	
  4582  0748                     l7993:	
  4583                           ;keypad.c: 202: }
  4584                           ;keypad.c: 203: return '#';
  4585  0748  3023               	movlw	(023h)
  4586  0749  2FFF               	goto	l1510
  4587                           	
  4588  074A                     l7995:	
  4589  074A  2FFF               	goto	l1510
  4590                           	line	204
  4591                           	
  4592  074B                     l1561:	
  4593                           	line	206
  4594                           ;keypad.c: 204: }
  4595                           ;keypad.c: 206: while(!Row1 && !Row2 && !Row3 && !Row4);
  4596  074B  2F4C               	goto	l1565
  4597                           	
  4598  074C                     l1566:	
  4599                           	
  4600  074C                     l1565:	
  4601  074C  1805               	btfsc	(40/8),(40)&7
  4602  074D  2F4F               	goto	u4401
  4603  074E  2F50               	goto	u4400
  4604  074F                     u4401:
  4605  074F  2F5D               	goto	l1569
  4606  0750                     u4400:
  4607                           	
  4608  0750                     l7997:	
  4609  0750  1885               	btfsc	(41/8),(41)&7
  4610  0751  2F53               	goto	u4411
  4611  0752  2F54               	goto	u4410
  4612  0753                     u4411:
  4613  0753  2F5D               	goto	l1569
  4614  0754                     u4410:
  4615                           	
  4616  0754                     l7999:	
  4617  0754  1905               	btfsc	(42/8),(42)&7
  4618  0755  2F57               	goto	u4421
  4619  0756  2F58               	goto	u4420
  4620  0757                     u4421:
  4621  0757  2F5D               	goto	l1569
  4622  0758                     u4420:
  4623                           	
  4624  0758                     l8001:	
  4625  0758  1D85               	btfss	(43/8),(43)&7
  4626  0759  2F5B               	goto	u4431
  4627  075A  2F5C               	goto	u4430
  4628  075B                     u4431:
  4629  075B  2F4C               	goto	l1565
  4630  075C                     u4430:
  4631  075C  2F5D               	goto	l1569
  4632                           	
  4633  075D                     l1568:	
  4634                           	
  4635  075D                     l1569:	
  4636                           	line	207
  4637                           ;keypad.c: 207: Col1 = 1; Col2 = 1; Col3 = 1; Col4 = 0;
  4638  075D  1407               	bsf	(56/8),(56)&7
  4639  075E  1487               	bsf	(57/8),(57)&7
  4640  075F  1507               	bsf	(58/8),(58)&7
  4641  0760  1187               	bcf	(59/8),(59)&7
  4642                           	line	208
  4643                           ;keypad.c: 208: if(!Row1)
  4644  0761  1805               	btfsc	(40/8),(40)&7
  4645  0762  2F64               	goto	u4441
  4646  0763  2F65               	goto	u4440
  4647  0764                     u4441:
  4648  0764  2F88               	goto	l1570
  4649  0765                     u4440:
  4650  0765  2F7E               	goto	l8009
  4651                           	line	210
  4652                           	
  4653  0766                     l8003:	
  4654                           ;keypad.c: 209: {
  4655                           ;keypad.c: 210: while(!Row1)
  4656  0766  2F7E               	goto	l8009
  4657                           	
  4658  0767                     l1572:	
  4659                           	line	212
  4660                           	
  4661  0767                     l8005:	
  4662                           ;keypad.c: 211: {
  4663                           ;keypad.c: 212: *Var1 = ++ButtonPressedTime;
  4664  0767  3001               	movlw	low(01h)
  4665  0768  07F2               	addwf	(FetchKey@ButtonPressedTime),f
  4666  0769  1803               	skipnc
  4667  076A  0AF3               	incf	(FetchKey@ButtonPressedTime+1),f
  4668  076B  3000               	movlw	high(01h)
  4669  076C  07F3               	addwf	(FetchKey@ButtonPressedTime+1),f
  4670  076D  0874               	movf	(FetchKey@Var1),w
  4671  076E  0084               	movwf	fsr0
  4672  076F  0872               	movf	((FetchKey@ButtonPressedTime)),w
  4673  0770  1383               	bcf	status, 7	;select IRP bank0
  4674  0771  0080               	movwf	indf
  4675  0772  0A84               	incf	fsr0,f
  4676  0773  0873               	movf	((FetchKey@ButtonPressedTime+1)),w
  4677  0774  0080               	movwf	indf
  4678                           	line	213
  4679                           	
  4680  0775                     l8007:	
  4681                           ;keypad.c: 213: _delay((unsigned long)((1)*(20000000UL/4000.0)));
  4682                           	opt asmopt_off
  4683  0775  3007               movlw	7
  4684  0776  00F1               movwf	((??_FetchKey+0)+0+1),f
  4685  0777  307D               	movlw	125
  4686  0778  00F0               movwf	((??_FetchKey+0)+0),f
  4687  0779                     u5297:
  4688  0779  0BF0               	decfsz	((??_FetchKey+0)+0),f
  4689  077A  2F79               	goto	u5297
  4690  077B  0BF1               	decfsz	((??_FetchKey+0)+0+1),f
  4691  077C  2F79               	goto	u5297
  4692                           opt asmopt_on
  4693                           
  4694  077D  2F7E               	goto	l8009
  4695                           	line	214
  4696                           	
  4697  077E                     l1571:	
  4698                           	line	210
  4699                           	
  4700  077E                     l8009:	
  4701  077E  1283               	bcf	status, 5	;RP0=0, select bank0
  4702  077F  1303               	bcf	status, 6	;RP1=0, select bank0
  4703  0780  1C05               	btfss	(40/8),(40)&7
  4704  0781  2F83               	goto	u4451
  4705  0782  2F84               	goto	u4450
  4706  0783                     u4451:
  4707  0783  2F67               	goto	l8005
  4708  0784                     u4450:
  4709  0784  2F85               	goto	l8011
  4710                           	
  4711  0785                     l1573:	
  4712                           	line	215
  4713                           	
  4714  0785                     l8011:	
  4715                           ;keypad.c: 214: }
  4716                           ;keypad.c: 215: return 'A';
  4717  0785  3041               	movlw	(041h)
  4718  0786  2FFF               	goto	l1510
  4719                           	
  4720  0787                     l8013:	
  4721  0787  2FFF               	goto	l1510
  4722                           	line	216
  4723                           	
  4724  0788                     l1570:	
  4725                           	line	217
  4726                           ;keypad.c: 216: }
  4727                           ;keypad.c: 217: if(!Row2)
  4728  0788  1885               	btfsc	(41/8),(41)&7
  4729  0789  2F8B               	goto	u4461
  4730  078A  2F8C               	goto	u4460
  4731  078B                     u4461:
  4732  078B  2FAF               	goto	l1574
  4733  078C                     u4460:
  4734  078C  2FA5               	goto	l8021
  4735                           	line	219
  4736                           	
  4737  078D                     l8015:	
  4738                           ;keypad.c: 218: {
  4739                           ;keypad.c: 219: while(!Row2)
  4740  078D  2FA5               	goto	l8021
  4741                           	
  4742  078E                     l1576:	
  4743                           	line	221
  4744                           	
  4745  078E                     l8017:	
  4746                           ;keypad.c: 220: {
  4747                           ;keypad.c: 221: *Var1 = ++ButtonPressedTime;
  4748  078E  3001               	movlw	low(01h)
  4749  078F  07F2               	addwf	(FetchKey@ButtonPressedTime),f
  4750  0790  1803               	skipnc
  4751  0791  0AF3               	incf	(FetchKey@ButtonPressedTime+1),f
  4752  0792  3000               	movlw	high(01h)
  4753  0793  07F3               	addwf	(FetchKey@ButtonPressedTime+1),f
  4754  0794  0874               	movf	(FetchKey@Var1),w
  4755  0795  0084               	movwf	fsr0
  4756  0796  0872               	movf	((FetchKey@ButtonPressedTime)),w
  4757  0797  1383               	bcf	status, 7	;select IRP bank0
  4758  0798  0080               	movwf	indf
  4759  0799  0A84               	incf	fsr0,f
  4760  079A  0873               	movf	((FetchKey@ButtonPressedTime+1)),w
  4761  079B  0080               	movwf	indf
  4762                           	line	222
  4763                           	
  4764  079C                     l8019:	
  4765                           ;keypad.c: 222: _delay((unsigned long)((1)*(20000000UL/4000.0)));
  4766                           	opt asmopt_off
  4767  079C  3007               movlw	7
  4768  079D  00F1               movwf	((??_FetchKey+0)+0+1),f
  4769  079E  307D               	movlw	125
  4770  079F  00F0               movwf	((??_FetchKey+0)+0),f
  4771  07A0                     u5307:
  4772  07A0  0BF0               	decfsz	((??_FetchKey+0)+0),f
  4773  07A1  2FA0               	goto	u5307
  4774  07A2  0BF1               	decfsz	((??_FetchKey+0)+0+1),f
  4775  07A3  2FA0               	goto	u5307
  4776                           opt asmopt_on
  4777                           
  4778  07A4  2FA5               	goto	l8021
  4779                           	line	223
  4780                           	
  4781  07A5                     l1575:	
  4782                           	line	219
  4783                           	
  4784  07A5                     l8021:	
  4785  07A5  1283               	bcf	status, 5	;RP0=0, select bank0
  4786  07A6  1303               	bcf	status, 6	;RP1=0, select bank0
  4787  07A7  1C85               	btfss	(41/8),(41)&7
  4788  07A8  2FAA               	goto	u4471
  4789  07A9  2FAB               	goto	u4470
  4790  07AA                     u4471:
  4791  07AA  2F8E               	goto	l8017
  4792  07AB                     u4470:
  4793  07AB  2FAC               	goto	l8023
  4794                           	
  4795  07AC                     l1577:	
  4796                           	line	224
  4797                           	
  4798  07AC                     l8023:	
  4799                           ;keypad.c: 223: }
  4800                           ;keypad.c: 224: return 'B';
  4801  07AC  3042               	movlw	(042h)
  4802  07AD  2FFF               	goto	l1510
  4803                           	
  4804  07AE                     l8025:	
  4805  07AE  2FFF               	goto	l1510
  4806                           	line	225
  4807                           	
  4808  07AF                     l1574:	
  4809                           	line	226
  4810                           ;keypad.c: 225: }
  4811                           ;keypad.c: 226: if(!Row3)
  4812  07AF  1905               	btfsc	(42/8),(42)&7
  4813  07B0  2FB2               	goto	u4481
  4814  07B1  2FB3               	goto	u4480
  4815  07B2                     u4481:
  4816  07B2  2FD6               	goto	l1578
  4817  07B3                     u4480:
  4818  07B3  2FCC               	goto	l8033
  4819                           	line	228
  4820                           	
  4821  07B4                     l8027:	
  4822                           ;keypad.c: 227: {
  4823                           ;keypad.c: 228: while(!Row3)
  4824  07B4  2FCC               	goto	l8033
  4825                           	
  4826  07B5                     l1580:	
  4827                           	line	230
  4828                           	
  4829  07B5                     l8029:	
  4830                           ;keypad.c: 229: {
  4831                           ;keypad.c: 230: *Var1 = ++ButtonPressedTime;
  4832  07B5  3001               	movlw	low(01h)
  4833  07B6  07F2               	addwf	(FetchKey@ButtonPressedTime),f
  4834  07B7  1803               	skipnc
  4835  07B8  0AF3               	incf	(FetchKey@ButtonPressedTime+1),f
  4836  07B9  3000               	movlw	high(01h)
  4837  07BA  07F3               	addwf	(FetchKey@ButtonPressedTime+1),f
  4838  07BB  0874               	movf	(FetchKey@Var1),w
  4839  07BC  0084               	movwf	fsr0
  4840  07BD  0872               	movf	((FetchKey@ButtonPressedTime)),w
  4841  07BE  1383               	bcf	status, 7	;select IRP bank0
  4842  07BF  0080               	movwf	indf
  4843  07C0  0A84               	incf	fsr0,f
  4844  07C1  0873               	movf	((FetchKey@ButtonPressedTime+1)),w
  4845  07C2  0080               	movwf	indf
  4846                           	line	231
  4847                           	
  4848  07C3                     l8031:	
  4849                           ;keypad.c: 231: _delay((unsigned long)((1)*(20000000UL/4000.0)));
  4850                           	opt asmopt_off
  4851  07C3  3007               movlw	7
  4852  07C4  00F1               movwf	((??_FetchKey+0)+0+1),f
  4853  07C5  307D               	movlw	125
  4854  07C6  00F0               movwf	((??_FetchKey+0)+0),f
  4855  07C7                     u5317:
  4856  07C7  0BF0               	decfsz	((??_FetchKey+0)+0),f
  4857  07C8  2FC7               	goto	u5317
  4858  07C9  0BF1               	decfsz	((??_FetchKey+0)+0+1),f
  4859  07CA  2FC7               	goto	u5317
  4860                           opt asmopt_on
  4861                           
  4862  07CB  2FCC               	goto	l8033
  4863                           	line	232
  4864                           	
  4865  07CC                     l1579:	
  4866                           	line	228
  4867                           	
  4868  07CC                     l8033:	
  4869  07CC  1283               	bcf	status, 5	;RP0=0, select bank0
  4870  07CD  1303               	bcf	status, 6	;RP1=0, select bank0
  4871  07CE  1D05               	btfss	(42/8),(42)&7
  4872  07CF  2FD1               	goto	u4491
  4873  07D0  2FD2               	goto	u4490
  4874  07D1                     u4491:
  4875  07D1  2FB5               	goto	l8029
  4876  07D2                     u4490:
  4877  07D2  2FD3               	goto	l8035
  4878                           	
  4879  07D3                     l1581:	
  4880                           	line	233
  4881                           	
  4882  07D3                     l8035:	
  4883                           ;keypad.c: 232: }
  4884                           ;keypad.c: 233: return 'C';
  4885  07D3  3043               	movlw	(043h)
  4886  07D4  2FFF               	goto	l1510
  4887                           	
  4888  07D5                     l8037:	
  4889  07D5  2FFF               	goto	l1510
  4890                           	line	234
  4891                           	
  4892  07D6                     l1578:	
  4893                           	line	235
  4894                           ;keypad.c: 234: }
  4895                           ;keypad.c: 235: if(!Row4)
  4896  07D6  1985               	btfsc	(43/8),(43)&7
  4897  07D7  2FD9               	goto	u4501
  4898  07D8  2FDA               	goto	u4500
  4899  07D9                     u4501:
  4900  07D9  2FFD               	goto	l8051
  4901  07DA                     u4500:
  4902  07DA  2FF3               	goto	l8045
  4903                           	line	237
  4904                           	
  4905  07DB                     l8039:	
  4906                           ;keypad.c: 236: {
  4907                           ;keypad.c: 237: while(!Row4)
  4908  07DB  2FF3               	goto	l8045
  4909                           	
  4910  07DC                     l1584:	
  4911                           	line	239
  4912                           	
  4913  07DC                     l8041:	
  4914                           ;keypad.c: 238: {
  4915                           ;keypad.c: 239: *Var1 = ++ButtonPressedTime;
  4916  07DC  3001               	movlw	low(01h)
  4917  07DD  07F2               	addwf	(FetchKey@ButtonPressedTime),f
  4918  07DE  1803               	skipnc
  4919  07DF  0AF3               	incf	(FetchKey@ButtonPressedTime+1),f
  4920  07E0  3000               	movlw	high(01h)
  4921  07E1  07F3               	addwf	(FetchKey@ButtonPressedTime+1),f
  4922  07E2  0874               	movf	(FetchKey@Var1),w
  4923  07E3  0084               	movwf	fsr0
  4924  07E4  0872               	movf	((FetchKey@ButtonPressedTime)),w
  4925  07E5  1383               	bcf	status, 7	;select IRP bank0
  4926  07E6  0080               	movwf	indf
  4927  07E7  0A84               	incf	fsr0,f
  4928  07E8  0873               	movf	((FetchKey@ButtonPressedTime+1)),w
  4929  07E9  0080               	movwf	indf
  4930                           	line	240
  4931                           	
  4932  07EA                     l8043:	
  4933                           ;keypad.c: 240: _delay((unsigned long)((1)*(20000000UL/4000.0)));
  4934                           	opt asmopt_off
  4935  07EA  3007               movlw	7
  4936  07EB  00F1               movwf	((??_FetchKey+0)+0+1),f
  4937  07EC  307D               	movlw	125
  4938  07ED  00F0               movwf	((??_FetchKey+0)+0),f
  4939  07EE                     u5327:
  4940  07EE  0BF0               	decfsz	((??_FetchKey+0)+0),f
  4941  07EF  2FEE               	goto	u5327
  4942  07F0  0BF1               	decfsz	((??_FetchKey+0)+0+1),f
  4943  07F1  2FEE               	goto	u5327
  4944                           opt asmopt_on
  4945                           
  4946  07F2  2FF3               	goto	l8045
  4947                           	line	241
  4948                           	
  4949  07F3                     l1583:	
  4950                           	line	237
  4951                           	
  4952  07F3                     l8045:	
  4953  07F3  1283               	bcf	status, 5	;RP0=0, select bank0
  4954  07F4  1303               	bcf	status, 6	;RP1=0, select bank0
  4955  07F5  1D85               	btfss	(43/8),(43)&7
  4956  07F6  2FF8               	goto	u4511
  4957  07F7  2FF9               	goto	u4510
  4958  07F8                     u4511:
  4959  07F8  2FDC               	goto	l8041
  4960  07F9                     u4510:
  4961  07F9  2FFA               	goto	l8047
  4962                           	
  4963  07FA                     l1585:	
  4964                           	line	242
  4965                           	
  4966  07FA                     l8047:	
  4967                           ;keypad.c: 241: }
  4968                           ;keypad.c: 242: return 'D';
  4969  07FA  3044               	movlw	(044h)
  4970  07FB  2FFF               	goto	l1510
  4971                           	
  4972  07FC                     l8049:	
  4973  07FC  2FFF               	goto	l1510
  4974                           	line	243
  4975                           	
  4976  07FD                     l1582:	
  4977                           	line	244
  4978                           	
  4979  07FD                     l8051:	
  4980                           ;keypad.c: 243: }
  4981                           ;keypad.c: 244: return '\0';
  4982  07FD  3000               	movlw	(0)
  4983  07FE  2FFF               	goto	l1510
  4984                           	
  4985  07FF                     l8053:	
  4986                           	line	246
  4987                           	
  4988  07FF                     l1510:	
  4989  07FF  0008               	return
  4990                           	opt stack 0
  4991                           GLOBAL	__end_of_FetchKey
  4992  0800                     	__end_of_FetchKey:
  4993 ;; =============== function _FetchKey ends ============
  4994                           
  4995                           	signat	_FetchKey,4217
  4996                           	global	___wmul
  4997                           psect	text425,local,class=CODE,delta=2
  4998                           global __ptext425
  4999  0E07                     __ptext425:
  5000                           
  5001 ;; *************** function ___wmul *****************
  5002 ;; Defined at:
  5003 ;;		line 3 in file "C:\Program Files (x86)\HI-TECH Software\PICC\9.82\sources\wmul.c"
  5004 ;; Parameters:    Size  Location     Type
  5005 ;;  multiplier      2    0[COMMON] unsigned int 
  5006 ;;  multiplicand    2    2[COMMON] unsigned int 
  5007 ;; Auto vars:     Size  Location     Type
  5008 ;;  product         2    4[COMMON] unsigned int 
  5009 ;; Return value:  Size  Location     Type
  5010 ;;                  2    0[COMMON] unsigned int 
  5011 ;; Registers used:
  5012 ;;		wreg, status,2, status,0
  5013 ;; Tracked objects:
  5014 ;;		On entry : 0/0
  5015 ;;		On exit  : 0/0
  5016 ;;		Unchanged: 0/0
  5017 ;; Data sizes:     COMMON   BANK0   BANK1   BANK3   BANK2
  5018 ;;      Params:         4       0       0       0       0
  5019 ;;      Locals:         2       0       0       0       0
  5020 ;;      Temps:          0       0       0       0       0
  5021 ;;      Totals:         6       0       0       0       0
  5022 ;;Total ram usage:        6 bytes
  5023 ;; Hardware stack levels used:    1
  5024 ;; This function calls:
  5025 ;;		Nothing
  5026 ;; This function is called by:
  5027 ;;		_atoi
  5028 ;; This function uses a non-reentrant model
  5029 ;;
  5030                           psect	text425
  5031                           	file	"C:\Program Files (x86)\HI-TECH Software\PICC\9.82\sources\wmul.c"
  5032                           	line	3
  5033                           	global	__size_of___wmul
  5034  002A                     	__size_of___wmul	equ	__end_of___wmul-___wmul
  5035                           	
  5036  0E07                     ___wmul:	
  5037                           	opt	stack 5
  5038                           ; Regs used in ___wmul: [wreg+status,2+status,0]
  5039                           	line	4
  5040                           	
  5041  0E07                     l7821:	
  5042  0E07  01F4               	clrf	(___wmul@product)
  5043  0E08  01F5               	clrf	(___wmul@product+1)
  5044  0E09  2E0A               	goto	l7823
  5045                           	line	6
  5046                           	
  5047  0E0A                     l5096:	
  5048                           	line	7
  5049                           	
  5050  0E0A                     l7823:	
  5051  0E0A  1C70               	btfss	(___wmul@multiplier),(0)&7
  5052  0E0B  2E0D               	goto	u4001
  5053  0E0C  2E0E               	goto	u4000
  5054  0E0D                     u4001:
  5055  0E0D  2E14               	goto	l5097
  5056  0E0E                     u4000:
  5057                           	line	8
  5058                           	
  5059  0E0E                     l7825:	
  5060  0E0E  0872               	movf	(___wmul@multiplicand),w
  5061  0E0F  07F4               	addwf	(___wmul@product),f
  5062  0E10  1803               	skipnc
  5063  0E11  0AF5               	incf	(___wmul@product+1),f
  5064  0E12  0873               	movf	(___wmul@multiplicand+1),w
  5065  0E13  07F5               	addwf	(___wmul@product+1),f
  5066                           	
  5067  0E14                     l5097:	
  5068                           	line	9
  5069  0E14  3001               	movlw	01h
  5070                           	
  5071  0E15                     u4015:
  5072  0E15  1003               	clrc
  5073  0E16  0DF2               	rlf	(___wmul@multiplicand),f
  5074  0E17  0DF3               	rlf	(___wmul@multiplicand+1),f
  5075  0E18  3EFF               	addlw	-1
  5076  0E19  1D03               	skipz
  5077  0E1A  2E15               	goto	u4015
  5078                           	line	10
  5079                           	
  5080  0E1B                     l7827:	
  5081  0E1B  3001               	movlw	01h
  5082                           	
  5083  0E1C                     u4025:
  5084  0E1C  1003               	clrc
  5085  0E1D  0CF1               	rrf	(___wmul@multiplier+1),f
  5086  0E1E  0CF0               	rrf	(___wmul@multiplier),f
  5087  0E1F  3EFF               	addlw	-1
  5088  0E20  1D03               	skipz
  5089  0E21  2E1C               	goto	u4025
  5090                           	line	11
  5091  0E22  0871               	movf	((___wmul@multiplier+1)),w
  5092  0E23  0470               	iorwf	((___wmul@multiplier)),w
  5093  0E24  1D03               	skipz
  5094  0E25  2E27               	goto	u4031
  5095  0E26  2E28               	goto	u4030
  5096  0E27                     u4031:
  5097  0E27  2E0A               	goto	l7823
  5098  0E28                     u4030:
  5099  0E28  2E29               	goto	l7829
  5100                           	
  5101  0E29                     l5098:	
  5102                           	line	12
  5103                           	
  5104  0E29                     l7829:	
  5105  0E29  0875               	movf	(___wmul@product+1),w
  5106  0E2A  01F1               	clrf	(?___wmul+1)
  5107  0E2B  07F1               	addwf	(?___wmul+1)
  5108  0E2C  0874               	movf	(___wmul@product),w
  5109  0E2D  01F0               	clrf	(?___wmul)
  5110  0E2E  07F0               	addwf	(?___wmul)
  5111                           
  5112  0E2F  2E30               	goto	l5099
  5113                           	
  5114  0E30                     l7831:	
  5115                           	line	13
  5116                           	
  5117  0E30                     l5099:	
  5118  0E30  0008               	return
  5119                           	opt stack 0
  5120                           GLOBAL	__end_of___wmul
  5121  0E31                     	__end_of___wmul:
  5122 ;; =============== function ___wmul ends ============
  5123                           
  5124                           	signat	___wmul,8314
  5125                           	global	_eeprom_write
  5126                           psect	text426,local,class=CODE,delta=2
  5127                           global __ptext426
  5128  0E31                     __ptext426:
  5129                           
  5130 ;; *************** function _eeprom_write *****************
  5131 ;; Defined at:
  5132 ;;		line 7 in file "C:\Program Files (x86)\HI-TECH Software\PICC\9.82\sources\eewrite.c"
  5133 ;; Parameters:    Size  Location     Type
  5134 ;;  addr            1    wreg     unsigned char 
  5135 ;;  value           1    0[COMMON] unsigned char 
  5136 ;; Auto vars:     Size  Location     Type
  5137 ;;  addr            1    2[COMMON] unsigned char 
  5138 ;; Return value:  Size  Location     Type
  5139 ;;                  1    wreg      unsigned char 
  5140 ;; Registers used:
  5141 ;;		wreg, status,2, status,0
  5142 ;; Tracked objects:
  5143 ;;		On entry : 0/0
  5144 ;;		On exit  : 0/0
  5145 ;;		Unchanged: 0/0
  5146 ;; Data sizes:     COMMON   BANK0   BANK1   BANK3   BANK2
  5147 ;;      Params:         1       0       0       0       0
  5148 ;;      Locals:         1       0       0       0       0
  5149 ;;      Temps:          1       0       0       0       0
  5150 ;;      Totals:         3       0       0       0       0
  5151 ;;Total ram usage:        3 bytes
  5152 ;; Hardware stack levels used:    1
  5153 ;; This function calls:
  5154 ;;		Nothing
  5155 ;; This function is called by:
  5156 ;;		_ChangePassWord
  5157 ;; This function uses a non-reentrant model
  5158 ;;
  5159                           psect	text426
  5160                           	file	"C:\Program Files (x86)\HI-TECH Software\PICC\9.82\sources\eewrite.c"
  5161                           	line	7
  5162                           	global	__size_of_eeprom_write
  5163  0031                     	__size_of_eeprom_write	equ	__end_of_eeprom_write-_eeprom_write
  5164                           	
  5165  0E31                     _eeprom_write:	
  5166                           	opt	stack 6
  5167                           ; Regs used in _eeprom_write: [wreg+status,2+status,0]
  5168                           ;eeprom_write@addr stored from wreg
  5169  0E31  00F2               	movwf	(eeprom_write@addr)
  5170                           	line	8
  5171                           	
  5172  0E32                     l4346:	
  5173  0E32  2E33               	goto	l4347
  5174                           	
  5175  0E33                     l4348:	
  5176                           	
  5177  0E33                     l4347:	
  5178  0E33  1683               	bsf	status, 5	;RP0=1, select bank3
  5179  0E34  1703               	bsf	status, 6	;RP1=1, select bank3
  5180  0E35  188C               	btfsc	(3169/8)^0180h,(3169)&7
  5181  0E36  2E38               	goto	u3971
  5182  0E37  2E39               	goto	u3970
  5183  0E38                     u3971:
  5184  0E38  2E33               	goto	l4347
  5185  0E39                     u3970:
  5186  0E39  2E3A               	goto	l7801
  5187                           	
  5188  0E3A                     l4349:	
  5189                           	
  5190  0E3A                     l7801:	
  5191  0E3A  0872               	movf	(eeprom_write@addr),w
  5192  0E3B  1283               	bcf	status, 5	;RP0=0, select bank2
  5193  0E3C  1703               	bsf	status, 6	;RP1=1, select bank2
  5194  0E3D  008D               	movwf	(269)^0100h	;volatile
  5195  0E3E  0870               	movf	(eeprom_write@value),w
  5196  0E3F  008C               	movwf	(268)^0100h	;volatile
  5197                           	
  5198  0E40                     l7803:	
  5199  0E40  303F               	movlw	(03Fh)
  5200  0E41  00F1               	movwf	(??_eeprom_write+0)+0
  5201  0E42  0871               	movf	(??_eeprom_write+0)+0,w
  5202  0E43  1683               	bsf	status, 5	;RP0=1, select bank3
  5203  0E44  1703               	bsf	status, 6	;RP1=1, select bank3
  5204  0E45  058C               	andwf	(396)^0180h,f	;volatile
  5205                           	
  5206  0E46                     l7805:	
  5207  0E46  1283               	bcf	status, 5	;RP0=0, select bank0
  5208  0E47  1303               	bcf	status, 6	;RP1=0, select bank0
  5209  0E48  1003               	bcf	(24/8),(24)&7
  5210                           	
  5211  0E49                     l7807:	
  5212  0E49  1F8B               	btfss	(95/8),(95)&7
  5213  0E4A  2E4C               	goto	u3981
  5214  0E4B  2E4D               	goto	u3980
  5215  0E4C                     u3981:
  5216  0E4C  2E4E               	goto	l4350
  5217  0E4D                     u3980:
  5218                           	
  5219  0E4D                     l7809:	
  5220  0E4D  1403               	bsf	(24/8),(24)&7
  5221                           	
  5222  0E4E                     l4350:	
  5223  0E4E  138B               	bcf	(95/8),(95)&7
  5224  0E4F  1683               	bsf	status, 5	;RP0=1, select bank3
  5225  0E50  1703               	bsf	status, 6	;RP1=1, select bank3
  5226  0E51  150C               	bsf	(3170/8)^0180h,(3170)&7
  5227                           	
  5228  0E52                     l7811:	
  5229  0E52  3055               	movlw	(055h)
  5230  0E53  008D               	movwf	(397)^0180h	;volatile
  5231  0E54  30AA               	movlw	(0AAh)
  5232  0E55  008D               	movwf	(397)^0180h	;volatile
  5233                           	
  5234  0E56                     l7813:	
  5235  0E56  148C               	bsf	(3169/8)^0180h,(3169)&7
  5236                           	
  5237  0E57                     l7815:	
  5238  0E57  110C               	bcf	(3170/8)^0180h,(3170)&7
  5239                           	
  5240  0E58                     l7817:	
  5241  0E58  1283               	bcf	status, 5	;RP0=0, select bank0
  5242  0E59  1303               	bcf	status, 6	;RP1=0, select bank0
  5243  0E5A  1C03               	btfss	(24/8),(24)&7
  5244  0E5B  2E5D               	goto	u3991
  5245  0E5C  2E5E               	goto	u3990
  5246  0E5D                     u3991:
  5247  0E5D  2E61               	goto	l4353
  5248  0E5E                     u3990:
  5249                           	
  5250  0E5E                     l7819:	
  5251  0E5E  178B               	bsf	(95/8),(95)&7
  5252  0E5F  2E61               	goto	l4353
  5253                           	
  5254  0E60                     l4351:	
  5255  0E60  2E61               	goto	l4353
  5256                           	
  5257  0E61                     l4352:	
  5258                           	line	10
  5259                           ;	Return value of _eeprom_write is never used
  5260                           	
  5261  0E61                     l4353:	
  5262  0E61  0008               	return
  5263                           	opt stack 0
  5264                           GLOBAL	__end_of_eeprom_write
  5265  0E62                     	__end_of_eeprom_write:
  5266 ;; =============== function _eeprom_write ends ============
  5267                           
  5268                           	signat	_eeprom_write,8313
  5269                           	global	_eeprom_read
  5270                           psect	text427,local,class=CODE,delta=2
  5271                           global __ptext427
  5272  0DC4                     __ptext427:
  5273                           
  5274 ;; *************** function _eeprom_read *****************
  5275 ;; Defined at:
  5276 ;;		line 7 in file "eeread.c"
  5277 ;; Parameters:    Size  Location     Type
  5278 ;;  addr            1    wreg     unsigned char 
  5279 ;; Auto vars:     Size  Location     Type
  5280 ;;  addr            1    1[COMMON] unsigned char 
  5281 ;; Return value:  Size  Location     Type
  5282 ;;                  1    wreg      unsigned char 
  5283 ;; Registers used:
  5284 ;;		wreg, status,2, status,0
  5285 ;; Tracked objects:
  5286 ;;		On entry : 0/0
  5287 ;;		On exit  : 0/0
  5288 ;;		Unchanged: 0/0
  5289 ;; Data sizes:     COMMON   BANK0   BANK1   BANK3   BANK2
  5290 ;;      Params:         0       0       0       0       0
  5291 ;;      Locals:         1       0       0       0       0
  5292 ;;      Temps:          1       0       0       0       0
  5293 ;;      Totals:         2       0       0       0       0
  5294 ;;Total ram usage:        2 bytes
  5295 ;; Hardware stack levels used:    1
  5296 ;; This function calls:
  5297 ;;		Nothing
  5298 ;; This function is called by:
  5299 ;;		_main
  5300 ;; This function uses a non-reentrant model
  5301 ;;
  5302                           psect	text427
  5303                           	file	"C:\Program Files (x86)\HI-TECH Software\PICC\9.82\sources\eeread.c"
  5304                           	line	7
  5305                           	global	__size_of_eeprom_read
  5306  001F                     	__size_of_eeprom_read	equ	__end_of_eeprom_read-_eeprom_read
  5307                           	
  5308  0DC4                     _eeprom_read:	
  5309                           	opt	stack 7
  5310                           ; Regs used in _eeprom_read: [wreg+status,2+status,0]
  5311                           ;eeprom_read@addr stored from wreg
  5312                           	line	9
  5313  0DC4  00F1               	movwf	(eeprom_read@addr)
  5314                           	line	8
  5315                           	
  5316  0DC5                     l3729:	
  5317                           	line	9
  5318                           # 9 "C:\Program Files (x86)\HI-TECH Software\PICC\9.82\sources\eeread.c"
  5319  0DC5  0064               clrwdt ;#
  5320                           psect	text427
  5321                           	line	10
  5322  0DC6  1683               	bsf	status, 5	;RP0=1, select bank3
  5323  0DC7  1703               	bsf	status, 6	;RP1=1, select bank3
  5324  0DC8  188C               	btfsc	(3169/8)^0180h,(3169)&7
  5325  0DC9  2DCB               	goto	u3961
  5326  0DCA  2DCC               	goto	u3960
  5327  0DCB                     u3961:
  5328  0DCB  2DC5               	goto	l3729
  5329  0DCC                     u3960:
  5330  0DCC  2DCD               	goto	l7797
  5331                           	
  5332  0DCD                     l3730:	
  5333                           	line	11
  5334                           	
  5335  0DCD                     l7797:	
  5336  0DCD  0871               	movf	(eeprom_read@addr),w
  5337  0DCE  1283               	bcf	status, 5	;RP0=0, select bank2
  5338  0DCF  1703               	bsf	status, 6	;RP1=1, select bank2
  5339  0DD0  008D               	movwf	(269)^0100h	;volatile
  5340  0DD1  303F               	movlw	(03Fh)
  5341  0DD2  00F0               	movwf	(??_eeprom_read+0)+0
  5342  0DD3  0870               	movf	(??_eeprom_read+0)+0,w
  5343  0DD4  1683               	bsf	status, 5	;RP0=1, select bank3
  5344  0DD5  1703               	bsf	status, 6	;RP1=1, select bank3
  5345  0DD6  058C               	andwf	(396)^0180h,f	;volatile
  5346  0DD7  140C               	bsf	(3168/8)^0180h,(3168)&7
  5347  0DD8  1003               	clrc
  5348  0DD9  180C               	btfsc	(3168/8)^0180h,(3168)&7
  5349  0DDA  1403               	setc
  5350  0DDB  3000               	movlw	0
  5351  0DDC  1803               	skipnc
  5352  0DDD  3001               	movlw	1
  5353                           
  5354  0DDE  1283               	bcf	status, 5	;RP0=0, select bank2
  5355  0DDF  1703               	bsf	status, 6	;RP1=1, select bank2
  5356  0DE0  080C               	movf	(268)^0100h,w	;volatile
  5357  0DE1  2DE2               	goto	l3731
  5358                           	
  5359  0DE2                     l7799:	
  5360                           	line	12
  5361                           	
  5362  0DE2                     l3731:	
  5363  0DE2  0008               	return
  5364                           	opt stack 0
  5365                           GLOBAL	__end_of_eeprom_read
  5366  0DE3                     	__end_of_eeprom_read:
  5367 ;; =============== function _eeprom_read ends ============
  5368                           
  5369                           	signat	_eeprom_read,4217
  5370                           	global	_LCD_Allort
  5371                           psect	text428,local,class=CODE,delta=2
  5372                           global __ptext428
  5373  0E62                     __ptext428:
  5374                           
  5375 ;; *************** function _LCD_Allort *****************
  5376 ;; Defined at:
  5377 ;;		line 75 in file "E:\pic program\Password Based Circuit Breaker\lcd.c"
  5378 ;; Parameters:    Size  Location     Type
  5379 ;;  Data            1    wreg     unsigned char 
  5380 ;; Auto vars:     Size  Location     Type
  5381 ;;  Data            1    1[COMMON] unsigned char 
  5382 ;; Return value:  Size  Location     Type
  5383 ;;		None               void
  5384 ;; Registers used:
  5385 ;;		wreg, status,2, status,0
  5386 ;; Tracked objects:
  5387 ;;		On entry : 0/0
  5388 ;;		On exit  : 0/0
  5389 ;;		Unchanged: 0/0
  5390 ;; Data sizes:     COMMON   BANK0   BANK1   BANK3   BANK2
  5391 ;;      Params:         0       0       0       0       0
  5392 ;;      Locals:         1       0       0       0       0
  5393 ;;      Temps:          1       0       0       0       0
  5394 ;;      Totals:         2       0       0       0       0
  5395 ;;Total ram usage:        2 bytes
  5396 ;; Hardware stack levels used:    1
  5397 ;; This function calls:
  5398 ;;		Nothing
  5399 ;; This function is called by:
  5400 ;;		_LCD_Command
  5401 ;;		_LCD_Write
  5402 ;; This function uses a non-reentrant model
  5403 ;;
  5404                           psect	text428
  5405                           	file	"E:\pic program\Password Based Circuit Breaker\lcd.c"
  5406                           	line	75
  5407                           	global	__size_of_LCD_Allort
  5408  0032                     	__size_of_LCD_Allort	equ	__end_of_LCD_Allort-_LCD_Allort
  5409                           	
  5410  0E62                     _LCD_Allort:	
  5411                           	opt	stack 6
  5412                           ; Regs used in _LCD_Allort: [wreg+status,2+status,0]
  5413                           ;LCD_Allort@Data stored from wreg
  5414  0E62  00F1               	movwf	(LCD_Allort@Data)
  5415                           	line	76
  5416                           	
  5417  0E63                     l7765:	
  5418                           ;lcd.c: 76: if(Data & 0x10) PORTB |= (1 << 3);
  5419  0E63  1E71               	btfss	(LCD_Allort@Data),(4)&7
  5420  0E64  2E66               	goto	u3921
  5421  0E65  2E67               	goto	u3920
  5422  0E66                     u3921:
  5423  0E66  2E6B               	goto	l7769
  5424  0E67                     u3920:
  5425                           	
  5426  0E67                     l7767:	
  5427  0E67  1283               	bcf	status, 5	;RP0=0, select bank0
  5428  0E68  1303               	bcf	status, 6	;RP1=0, select bank0
  5429  0E69  1586               	bsf	(6)+(3/8),(3)&7	;volatile
  5430  0E6A  2E72               	goto	l7771
  5431                           	line	77
  5432                           	
  5433  0E6B                     l2317:	
  5434                           	
  5435  0E6B                     l7769:	
  5436                           ;lcd.c: 77: else PORTB &=~ (1 << 3);
  5437  0E6B  30F7               	movlw	(0F7h)
  5438  0E6C  00F0               	movwf	(??_LCD_Allort+0)+0
  5439  0E6D  0870               	movf	(??_LCD_Allort+0)+0,w
  5440  0E6E  1283               	bcf	status, 5	;RP0=0, select bank0
  5441  0E6F  1303               	bcf	status, 6	;RP1=0, select bank0
  5442  0E70  0586               	andwf	(6),f	;volatile
  5443  0E71  2E72               	goto	l7771
  5444                           	
  5445  0E72                     l2318:	
  5446                           	line	78
  5447                           	
  5448  0E72                     l7771:	
  5449                           ;lcd.c: 78: if(Data & 0x20) PORTB |= (1 << 2);
  5450  0E72  1EF1               	btfss	(LCD_Allort@Data),(5)&7
  5451  0E73  2E75               	goto	u3931
  5452  0E74  2E76               	goto	u3930
  5453  0E75                     u3931:
  5454  0E75  2E78               	goto	l7775
  5455  0E76                     u3930:
  5456                           	
  5457  0E76                     l7773:	
  5458  0E76  1506               	bsf	(6)+(2/8),(2)&7	;volatile
  5459  0E77  2E7D               	goto	l7777
  5460                           	line	79
  5461                           	
  5462  0E78                     l2319:	
  5463                           	
  5464  0E78                     l7775:	
  5465                           ;lcd.c: 79: else PORTB &=~ (1 << 2);
  5466  0E78  30FB               	movlw	(0FBh)
  5467  0E79  00F0               	movwf	(??_LCD_Allort+0)+0
  5468  0E7A  0870               	movf	(??_LCD_Allort+0)+0,w
  5469  0E7B  0586               	andwf	(6),f	;volatile
  5470  0E7C  2E7D               	goto	l7777
  5471                           	
  5472  0E7D                     l2320:	
  5473                           	line	80
  5474                           	
  5475  0E7D                     l7777:	
  5476                           ;lcd.c: 80: if(Data & 0x40) PORTB |= (1 << 1);
  5477  0E7D  1F71               	btfss	(LCD_Allort@Data),(6)&7
  5478  0E7E  2E80               	goto	u3941
  5479  0E7F  2E81               	goto	u3940
  5480  0E80                     u3941:
  5481  0E80  2E83               	goto	l7781
  5482  0E81                     u3940:
  5483                           	
  5484  0E81                     l7779:	
  5485  0E81  1486               	bsf	(6)+(1/8),(1)&7	;volatile
  5486  0E82  2E88               	goto	l7783
  5487                           	line	81
  5488                           	
  5489  0E83                     l2321:	
  5490                           	
  5491  0E83                     l7781:	
  5492                           ;lcd.c: 81: else PORTB &=~ (1 << 1);
  5493  0E83  30FD               	movlw	(0FDh)
  5494  0E84  00F0               	movwf	(??_LCD_Allort+0)+0
  5495  0E85  0870               	movf	(??_LCD_Allort+0)+0,w
  5496  0E86  0586               	andwf	(6),f	;volatile
  5497  0E87  2E88               	goto	l7783
  5498                           	
  5499  0E88                     l2322:	
  5500                           	line	82
  5501                           	
  5502  0E88                     l7783:	
  5503                           ;lcd.c: 82: if(Data & 0x80) PORTB |= (1 << 0);
  5504  0E88  1FF1               	btfss	(LCD_Allort@Data),(7)&7
  5505  0E89  2E8B               	goto	u3951
  5506  0E8A  2E8C               	goto	u3950
  5507  0E8B                     u3951:
  5508  0E8B  2E8E               	goto	l7787
  5509  0E8C                     u3950:
  5510                           	
  5511  0E8C                     l7785:	
  5512  0E8C  1406               	bsf	(6)+(0/8),(0)&7	;volatile
  5513  0E8D  2E93               	goto	l2325
  5514                           	line	83
  5515                           	
  5516  0E8E                     l2323:	
  5517                           	
  5518  0E8E                     l7787:	
  5519                           ;lcd.c: 83: else PORTB &=~ (1 << 0);
  5520  0E8E  30FE               	movlw	(0FEh)
  5521  0E8F  00F0               	movwf	(??_LCD_Allort+0)+0
  5522  0E90  0870               	movf	(??_LCD_Allort+0)+0,w
  5523  0E91  0586               	andwf	(6),f	;volatile
  5524  0E92  2E93               	goto	l2325
  5525                           	
  5526  0E93                     l2324:	
  5527                           	line	84
  5528                           	
  5529  0E93                     l2325:	
  5530  0E93  0008               	return
  5531                           	opt stack 0
  5532                           GLOBAL	__end_of_LCD_Allort
  5533  0E94                     	__end_of_LCD_Allort:
  5534 ;; =============== function _LCD_Allort ends ============
  5535                           
  5536                           	signat	_LCD_Allort,4216
  5537                           	global	_memset
  5538                           psect	text429,local,class=CODE,delta=2
  5539                           global __ptext429
  5540  0DE3                     __ptext429:
  5541                           
  5542 ;; *************** function _memset *****************
  5543 ;; Defined at:
  5544 ;;		line 10 in file "C:\Program Files (x86)\HI-TECH Software\PICC\9.82\sources\memset.c"
  5545 ;; Parameters:    Size  Location     Type
  5546 ;;  p1              1    wreg     PTR void 
  5547 ;;		 -> LocalArray(5), RTC_Keypad@LocalArray(4), 
  5548 ;;  c               2    0[COMMON] int 
  5549 ;;  n               2    2[COMMON] unsigned int 
  5550 ;; Auto vars:     Size  Location     Type
  5551 ;;  p1              1    5[COMMON] PTR void 
  5552 ;;		 -> LocalArray(5), RTC_Keypad@LocalArray(4), 
  5553 ;;  p               1    6[COMMON] PTR unsigned char 
  5554 ;;		 -> LocalArray(5), RTC_Keypad@LocalArray(4), 
  5555 ;; Return value:  Size  Location     Type
  5556 ;;                  1    wreg      PTR void 
  5557 ;; Registers used:
  5558 ;;		wreg, fsr0l, fsr0h, status,2, status,0
  5559 ;; Tracked objects:
  5560 ;;		On entry : 0/0
  5561 ;;		On exit  : 0/0
  5562 ;;		Unchanged: 0/0
  5563 ;; Data sizes:     COMMON   BANK0   BANK1   BANK3   BANK2
  5564 ;;      Params:         4       0       0       0       0
  5565 ;;      Locals:         2       0       0       0       0
  5566 ;;      Temps:          1       0       0       0       0
  5567 ;;      Totals:         7       0       0       0       0
  5568 ;;Total ram usage:        7 bytes
  5569 ;; Hardware stack levels used:    1
  5570 ;; This function calls:
  5571 ;;		Nothing
  5572 ;; This function is called by:
  5573 ;;		_main
  5574 ;;		_ChangePassWord
  5575 ;;		_Keypad
  5576 ;; This function uses a non-reentrant model
  5577 ;;
  5578                           psect	text429
  5579                           	file	"C:\Program Files (x86)\HI-TECH Software\PICC\9.82\sources\memset.c"
  5580                           	line	10
  5581                           	global	__size_of_memset
  5582  0024                     	__size_of_memset	equ	__end_of_memset-_memset
  5583                           	
  5584  0DE3                     _memset:	
  5585                           	opt	stack 6
  5586                           ; Regs used in _memset: [wreg-fsr0h+status,2+status,0]
  5587                           ;memset@p1 stored from wreg
  5588                           	line	18
  5589  0DE3  00F5               	movwf	(memset@p1)
  5590                           	
  5591  0DE4                     l7723:	
  5592  0DE4  0875               	movf	(memset@p1),w
  5593  0DE5  00F4               	movwf	(??_memset+0)+0
  5594  0DE6  0874               	movf	(??_memset+0)+0,w
  5595  0DE7  00F6               	movwf	(memset@p)
  5596                           	line	19
  5597  0DE8  2DF5               	goto	l7729
  5598                           	
  5599  0DE9                     l5058:	
  5600                           	line	20
  5601                           	
  5602  0DE9                     l7725:	
  5603  0DE9  0870               	movf	(memset@c),w
  5604  0DEA  00F4               	movwf	(??_memset+0)+0
  5605  0DEB  0876               	movf	(memset@p),w
  5606  0DEC  0084               	movwf	fsr0
  5607  0DED  0874               	movf	(??_memset+0)+0,w
  5608  0DEE  1383               	bcf	status, 7	;select IRP bank0
  5609  0DEF  0080               	movwf	indf
  5610                           	
  5611  0DF0                     l7727:	
  5612  0DF0  3001               	movlw	(01h)
  5613  0DF1  00F4               	movwf	(??_memset+0)+0
  5614  0DF2  0874               	movf	(??_memset+0)+0,w
  5615  0DF3  07F6               	addwf	(memset@p),f
  5616  0DF4  2DF5               	goto	l7729
  5617                           	
  5618  0DF5                     l5057:	
  5619                           	line	19
  5620                           	
  5621  0DF5                     l7729:	
  5622  0DF5  3001               	movlw	low(01h)
  5623  0DF6  02F2               	subwf	(memset@n),f
  5624  0DF7  3000               	movlw	high(01h)
  5625  0DF8  1C03               	skipc
  5626  0DF9  03F3               	decf	(memset@n+1),f
  5627  0DFA  02F3               	subwf	(memset@n+1),f
  5628  0DFB  30FF               	movlw	high(0FFFFh)
  5629  0DFC  0673               	xorwf	((memset@n+1)),w
  5630  0DFD  1D03               	skipz
  5631  0DFE  2E01               	goto	u3915
  5632  0DFF  30FF               	movlw	low(0FFFFh)
  5633  0E00  0672               	xorwf	((memset@n)),w
  5634  0E01                     u3915:
  5635                           
  5636  0E01  1D03               	skipz
  5637  0E02  2E04               	goto	u3911
  5638  0E03  2E05               	goto	u3910
  5639  0E04                     u3911:
  5640  0E04  2DE9               	goto	l7725
  5641  0E05                     u3910:
  5642  0E05  2E06               	goto	l5060
  5643                           	
  5644  0E06                     l5059:	
  5645                           	line	22
  5646                           ;	Return value of _memset is never used
  5647                           	
  5648  0E06                     l5060:	
  5649  0E06  0008               	return
  5650                           	opt stack 0
  5651                           GLOBAL	__end_of_memset
  5652  0E07                     	__end_of_memset:
  5653 ;; =============== function _memset ends ============
  5654                           
  5655                           	signat	_memset,12409
  5656                           	global	_Keypad_Initialize
  5657                           psect	text430,local,class=CODE,delta=2
  5658                           global __ptext430
  5659  00CC                     __ptext430:
  5660                           
  5661 ;; *************** function _Keypad_Initialize *****************
  5662 ;; Defined at:
  5663 ;;		line 17 in file "E:\pic program\Password Based Circuit Breaker\keypad.c"
  5664 ;; Parameters:    Size  Location     Type
  5665 ;;		None
  5666 ;; Auto vars:     Size  Location     Type
  5667 ;;		None
  5668 ;; Return value:  Size  Location     Type
  5669 ;;		None               void
  5670 ;; Registers used:
  5671 ;;		wreg, status,2, status,0
  5672 ;; Tracked objects:
  5673 ;;		On entry : 0/0
  5674 ;;		On exit  : 0/0
  5675 ;;		Unchanged: 0/0
  5676 ;; Data sizes:     COMMON   BANK0   BANK1   BANK3   BANK2
  5677 ;;      Params:         0       0       0       0       0
  5678 ;;      Locals:         0       0       0       0       0
  5679 ;;      Temps:          1       0       0       0       0
  5680 ;;      Totals:         1       0       0       0       0
  5681 ;;Total ram usage:        1 bytes
  5682 ;; Hardware stack levels used:    1
  5683 ;; This function calls:
  5684 ;;		Nothing
  5685 ;; This function is called by:
  5686 ;;		_main
  5687 ;; This function uses a non-reentrant model
  5688 ;;
  5689                           psect	text430
  5690                           	file	"E:\pic program\Password Based Circuit Breaker\keypad.c"
  5691                           	line	17
  5692                           	global	__size_of_Keypad_Initialize
  5693  0017                     	__size_of_Keypad_Initialize	equ	__end_of_Keypad_Initialize-_Keypad_Initialize
  5694                           	
  5695  00CC                     _Keypad_Initialize:	
  5696                           	opt	stack 7
  5697                           ; Regs used in _Keypad_Initialize: [wreg+status,2+status,0]
  5698                           	line	27
  5699                           	
  5700  00CC                     l7667:	
  5701                           ;keypad.c: 27: TRISC &=~ (1 << 0);
  5702  00CC  30FE               	movlw	(0FEh)
  5703  00CD  00F0               	movwf	(??_Keypad_Initialize+0)+0
  5704  00CE  0870               	movf	(??_Keypad_Initialize+0)+0,w
  5705  00CF  1683               	bsf	status, 5	;RP0=1, select bank1
  5706  00D0  1303               	bcf	status, 6	;RP1=0, select bank1
  5707  00D1  0587               	andwf	(135)^080h,f	;volatile
  5708                           	line	28
  5709                           ;keypad.c: 28: TRISC &=~ (1 << 1);
  5710  00D2  30FD               	movlw	(0FDh)
  5711  00D3  00F0               	movwf	(??_Keypad_Initialize+0)+0
  5712  00D4  0870               	movf	(??_Keypad_Initialize+0)+0,w
  5713  00D5  0587               	andwf	(135)^080h,f	;volatile
  5714                           	line	29
  5715                           ;keypad.c: 29: TRISC &=~ (1 << 2);
  5716  00D6  30FB               	movlw	(0FBh)
  5717  00D7  00F0               	movwf	(??_Keypad_Initialize+0)+0
  5718  00D8  0870               	movf	(??_Keypad_Initialize+0)+0,w
  5719  00D9  0587               	andwf	(135)^080h,f	;volatile
  5720                           	line	30
  5721                           ;keypad.c: 30: TRISC &=~ (1 << 3);
  5722  00DA  30F7               	movlw	(0F7h)
  5723  00DB  00F0               	movwf	(??_Keypad_Initialize+0)+0
  5724  00DC  0870               	movf	(??_Keypad_Initialize+0)+0,w
  5725  00DD  0587               	andwf	(135)^080h,f	;volatile
  5726                           	line	31
  5727                           	
  5728  00DE                     l7669:	
  5729                           ;keypad.c: 31: TRISA |= (1 << 0);
  5730  00DE  1405               	bsf	(133)^080h+(0/8),(0)&7	;volatile
  5731                           	line	32
  5732                           	
  5733  00DF                     l7671:	
  5734                           ;keypad.c: 32: TRISA |= (1 << 1);
  5735  00DF  1485               	bsf	(133)^080h+(1/8),(1)&7	;volatile
  5736                           	line	33
  5737                           	
  5738  00E0                     l7673:	
  5739                           ;keypad.c: 33: TRISA |= (1 << 2);
  5740  00E0  1505               	bsf	(133)^080h+(2/8),(2)&7	;volatile
  5741                           	line	34
  5742                           	
  5743  00E1                     l7675:	
  5744                           ;keypad.c: 34: TRISA |= (1 << 3);
  5745  00E1  1585               	bsf	(133)^080h+(3/8),(3)&7	;volatile
  5746                           	line	36
  5747                           	
  5748  00E2                     l1498:	
  5749  00E2  0008               	return
  5750                           	opt stack 0
  5751                           GLOBAL	__end_of_Keypad_Initialize
  5752  00E3                     	__end_of_Keypad_Initialize:
  5753 ;; =============== function _Keypad_Initialize ends ============
  5754                           
  5755                           	signat	_Keypad_Initialize,88
  5756                           	global	_isdigit
  5757                           psect	text431,local,class=CODE,delta=2
  5758                           global __ptext431
  5759  0DAF                     __ptext431:
  5760                           
  5761 ;; *************** function _isdigit *****************
  5762 ;; Defined at:
  5763 ;;		line 13 in file "C:\Program Files (x86)\HI-TECH Software\PICC\9.82\sources\isdigit.c"
  5764 ;; Parameters:    Size  Location     Type
  5765 ;;  c               1    wreg     unsigned char 
  5766 ;; Auto vars:     Size  Location     Type
  5767 ;;  c               1    1[COMMON] unsigned char 
  5768 ;; Return value:  Size  Location     Type
  5769 ;;		None               void
  5770 ;; Registers used:
  5771 ;;		wreg, status,2, status,0
  5772 ;; Tracked objects:
  5773 ;;		On entry : 0/0
  5774 ;;		On exit  : 0/0
  5775 ;;		Unchanged: 0/0
  5776 ;; Data sizes:     COMMON   BANK0   BANK1   BANK3   BANK2
  5777 ;;      Params:         0       0       0       0       0
  5778 ;;      Locals:         2       0       0       0       0
  5779 ;;      Temps:          0       0       0       0       0
  5780 ;;      Totals:         2       0       0       0       0
  5781 ;;Total ram usage:        2 bytes
  5782 ;; Hardware stack levels used:    1
  5783 ;; This function calls:
  5784 ;;		Nothing
  5785 ;; This function is called by:
  5786 ;;		_main
  5787 ;;		_ChangePassWord
  5788 ;;		_atoi
  5789 ;;		_SplitString
  5790 ;;		_Keypad
  5791 ;; This function uses a non-reentrant model
  5792 ;;
  5793                           psect	text431
  5794                           	file	"C:\Program Files (x86)\HI-TECH Software\PICC\9.82\sources\isdigit.c"
  5795                           	line	13
  5796                           	global	__size_of_isdigit
  5797  0015                     	__size_of_isdigit	equ	__end_of_isdigit-_isdigit
  5798                           	
  5799  0DAF                     _isdigit:	
  5800                           	opt	stack 7
  5801                           ; Regs used in _isdigit: [wreg+status,2+status,0]
  5802                           ;isdigit@c stored from wreg
  5803  0DAF  00F1               	movwf	(isdigit@c)
  5804                           	line	14
  5805                           	
  5806  0DB0                     l7655:	
  5807  0DB0  01F0               	clrf	(_isdigit$4926)
  5808                           	
  5809  0DB1                     l7657:	
  5810  0DB1  303A               	movlw	(03Ah)
  5811  0DB2  0271               	subwf	(isdigit@c),w
  5812  0DB3  1803               	skipnc
  5813  0DB4  2DB6               	goto	u3801
  5814  0DB5  2DB7               	goto	u3800
  5815  0DB6                     u3801:
  5816  0DB6  2DC1               	goto	l7663
  5817  0DB7                     u3800:
  5818                           	
  5819  0DB7                     l7659:	
  5820  0DB7  3030               	movlw	(030h)
  5821  0DB8  0271               	subwf	(isdigit@c),w
  5822  0DB9  1C03               	skipc
  5823  0DBA  2DBC               	goto	u3811
  5824  0DBB  2DBD               	goto	u3810
  5825  0DBC                     u3811:
  5826  0DBC  2DC1               	goto	l7663
  5827  0DBD                     u3810:
  5828                           	
  5829  0DBD                     l7661:	
  5830  0DBD  01F0               	clrf	(_isdigit$4926)
  5831  0DBE  1403               	bsf	status,0
  5832  0DBF  0DF0               	rlf	(_isdigit$4926),f
  5833  0DC0  2DC1               	goto	l7663
  5834                           	
  5835  0DC1                     l5046:	
  5836                           	
  5837  0DC1                     l7663:	
  5838  0DC1  0C70               	rrf	(_isdigit$4926),w
  5839                           	
  5840  0DC2  2DC3               	goto	l5047
  5841                           	
  5842  0DC3                     l7665:	
  5843                           	line	15
  5844                           	
  5845  0DC3                     l5047:	
  5846  0DC3  0008               	return
  5847                           	opt stack 0
  5848                           GLOBAL	__end_of_isdigit
  5849  0DC4                     	__end_of_isdigit:
  5850 ;; =============== function _isdigit ends ============
  5851                           
  5852                           	signat	_isdigit,4216
  5853                           psect	text432,local,class=CODE,delta=2
  5854                           global __ptext432
  5855  0000                     __ptext432:
  5856                           	global	btemp
  5857  007E                     	btemp set 07Eh
  5858                           
  5859                           	DABS	1,126,2	;btemp
  5860                           	global	wtemp0
  5861  007E                     	wtemp0 set btemp


HI-TECH Software PICC Macro Assembler V9.82 build 9453 
Symbol Table                                                                                   Thu Aug 15 14:26:41 2024

               ?_LCD_Allort 0070              _LCD_Initialize 00E3                           pc 0002  
              ?_LCD_Command 0070                          _RD 0C60                          _WR 0C61  
                        fsr 0004         ___wmul@multiplicand 0072                         _GIE 005F  
                       fsr0 0004                         indf 0000  __size_of_Keypad_Initialize 0017  
                      l3100 052D                        l1501 0534                        l1510 07FF  
                      l1502 0534                        l2302 0F77                        l3110 0260  
                      l1511 0599                        l3111 0268                        l3103 01A7  
                      l2320 0E7D                        l1520 05DD                        l1512 058F  
                      l1504 0547                        l3112 0272                        l3104 01DB  
                      l2321 0E83                        l1521 05C6                        l1513 0578  
                      l1505 0547                        l2305 0EB5                        l3113 028D  
                      l3105 01E3                        l2322 0E88                        l1530 0603  
                      l1522 05E4                        l1514 0596                        l1506 0572  
                      l2306 0E96                        l3106 02B4                        l3114 02B4  
                      l2323 0E8E                        l1531 0621                        l1523 05E8  
                      l1515 05C0                        l1507 0568                        l2307 0EC6  
                      l2324 0E93                        l1540 0699                        l1532 064B  
                      l1524 05E8                        l1516 05B6                        l1508 0551  
                      l2308 0EC6                        l3108 0217                        l2325 0E93  
                      l2317 0E6B                        l1541 068F                        l1533 0641  
                      l1517 059F                        l1509 056F                        l3109 022C  
                      l2318 0E72                        l1550 06CC                        l1542 0678  
                      l1534 062A                        l1526 05F9                        l1518 05BD  
                      l2319 0E78                        l1551 06B5                        l1543 0696  
                      l1535 0648                        l1527 05F9                        l1519 05E7  
                      l3071 02FE                        l1560 0721                        l1552 06D3  
                      l1544 069A                        l1536 0672                        l1528 0624  
                      l3080 03E5                        l3072 0355                        l1561 074B  
                      l1553 06FD                        l1545 069A                        l1537 0668  
                      l1529 061A                        l3081 0412                        l3073 035A  
                      l1570 0788                        l1562 0741                        l1554 06F3  
                      l1538 0651                        l3090 04C3                        l3082 043E  
                      l3074 036A                        l3066 02DD                        l1571 077E  
                      l1563 072A                        l1555 06DC                        l1547 06AB  
                      l1539 066F                        l3083 052B                        l3091 04C8  
                      l3075 0377                        l3067 0311                        l1580 07B5  
                      l1572 0767                        l1564 0748                        l1556 06FA  
                      l1548 06AB                        l3092 04D8                        l3084 04B1  
                      l3076 0393                        l1581 07D3                        l1573 0785  
                      l1565 074C                        l1557 0724                        l1549 06D6  
                      l3093 04E5                        l3085 0473                        l3077 03C9  
                      l3069 02F9                        l1582 07FD                        l1574 07AF  
                      l1566 074C                        l1558 071A                        l3094 04E9  
                      l3086 0478                        l3078 0413                        l1583 07F3  
                      l1575 07A5                        l1559 0703                        l3095 04ED  
                      l3087 0488                        l3079 03F6                        l1584 07DC  
                      l1576 078E                        l1568 075D                        l5040 0FE7  
                      l5032 0F7F                        l2296 0173                        l3096 04FD  
                      l3088 0495                        l1585 07FA                        l1577 07AC  
                      l1569 075D                        l5041 0FF8                        l5033 0F7A  
                      l3089 052A                        l3097 050A                        l1498 00E2  
                      l1578 07D6                        l5042 0FFF                        l5034 0F91  
                      l3098 052C                        l1579 07CC                        l2299 0F1D  
                      l5035 0FA5                        l3099 052D                        l5060 0E06  
                      l5036 0FB3                        l5037 0FB2                        l5046 0DC1  
                      l4350 0E4E                        l5038 0FDA                        l5047 0DC3  
                      l4351 0E60                        l5039 0FB4                        l4352 0E61  
                      l5057 0DF5                        l4353 0E61                        l5058 0DE9  
                      l3730 0DCD                        l4346 0E32                        l5059 0E06  
                      l3731 0DE2                        l4347 0E33                        l4348 0E33  
                      l4349 0E3A                        l5096 0E0A                        l3729 0DC5  
                      l5097 0E14                        l8001 0758                        l5098 0E29  
                      l5099 0E30                        l8011 0785                        l8003 0766  
                      l8021 07A5                        l8013 0787                        l8005 0767  
                      l8101 0FB4                        l8031 07C3                        l8023 07AC  
                      l8015 078D                        l8007 0775                        l8111 0FF7  
                      l8103 0FD5                        l8041 07DC                        l8033 07CC  
                      l8025 07AE                        l8017 078E                        l8009 077E  
                      l8113 0FF8                        l8105 0FDA                        l8121 0F2F  
                      l8201 017A                        l8043 07EA                        l8051 07FD  
                      l8035 07D3                        l8027 07B4                        l8019 079C  
                      l8115 0FFF                        l8107 0FE7                        l8131 0F46  
                      l8123 0F35                        l8211 01A7                        l8203 0185  
                      l8053 07FF                        l8045 07F3                        l8037 07D5  
                      l8029 07B5                        l8061 0EDB                        l8109 0FEB  
                      l8141 0F68                        l8133 0F4B                        l8125 0F39  
                      l8117 0F1F                        l8221 01DB                        l8213 01B5  
                      l8205 018B                        l8301 0361                        l8047 07FA  
                      l8039 07DB                        l8071 0EF1                        l8063 0EDF  
                      l8055 0EC8                        l8143 0F6C                        l8135 0F5B  
                      l8127 0F3C                        l8119 0F25                        l8151 00FB  
                      l8231 022C                        l8223 01E4                        l8215 01BF  
                      l8207 0199                        l8311 0393                        l8303 036A  
                      l8049 07FC                        l8073 0F01                        l8065 0EE2  
                      l8057 0ECE                        l8081 0F79                        l8137 0F61  
                      l8129 0F40                        l8161 011C                        l8153 0103  
                      l8145 00E3                        l8241 0260                        l8233 023A  
                      l8225 0200                        l8217 01C9                        l8209 019C  
                      l8401 051F                        l8321 03BE                        l8313 03A1  
                      l8305 0377                        l8075 0F0B                        l8067 0EE6  
                      l8059 0ED5                        l8091 0F93                        l8083 0F7A  
                      l8139 0F65                        l8171 013B                        l8163 0122  
                      l8155 0109                        l8147 00ED                        l8251 0286  
                      l8243 026A                        l8235 0244                        l8227 020C  
                      l8219 01D4                        l8331 03E5                        l8315 03A8  
                      l8323 03C9                        l8307 037D                        l8077 0F12  
                      l8069 0EEC                        l8093 0F94                        l8085 0F7F  
                      l8181 0159                        l8173 0143                        l8165 0127  
                      l8157 0111                        l8149 00F5                        l8245 0271  
                      l8253 028D                        l8237 024E                        l8229 0217  
                      l8333 03EA                        l8325 03D2                        l8341 0413  
                      l8317 03AD                        l8309 0388                        l8261 02C2  
                      l8079 0F18                        l8095 0F9C                        l8087 0F88  
                      l8183 015F                        l8175 0149                        l8167 012D  
                      l8159 0117                        l8191 0E96                        l8255 02A9  
                      l8247 0272                        l8239 0259                        l8351 0446  
                      l8343 041F                        l8327 03DB                        l8335 03F6  
                      l8319 03B3                        l8271 02DD                        l8263 02C8  
                      l7801 0E3A                        l8097 0FA5                        l8089 0F91  
                      l8185 0164                        l8177 014E                        l8169 0135  
                      l8193 0EAA                        l8249 0280                        l8361 0473  
                      l8353 0454                        l8345 0429                        l8337 0400  
                      l8329 03E3                        l8281 030A                        l8273 02E8  
                      l8265 02CE                        l8257 02B5                        l7723 0DE4  
                      l7811 0E52                        l7803 0E40                        l8099 0FAD  
                      l8187 016A                        l8179 0154                        l8195 0EB0  
                      l8371 04A3                        l8363 0478                        l8355 045E  
                      l8347 0437                        l8339 040E                        l8291 033A  
                      l8275 02F9                        l8283 0311                        l8267 02D4  
                      l8259 02BA                        l7661 0DBD                        l7725 0DE9  
                      l7813 0E56                        l7805 0E46                        l7821 0E07  
                      l7901 061A                        l8197 0EB5                        l8189 0E95  
                      l8381 04C3                        l8373 04A6                        l8365 047F  
                      l8357 0468                        l8349 043E                        l8293 0344  
                      l8285 032D                        l8277 02FE                        l8269 02DC  
                      l7663 0DC1                        l7655 0DB0                        l7671 00DF  
                      l7727 0DF0                        l7815 0E57                        l7807 0E49  
                      l7831 0E30                        l7823 0E0A                        l7911 0638  
                      l7903 0621                        l8199 0174                        l8391 04F4  
                      l8383 04C8                        l8367 0488                        l8359 046E  
                      l8375 04B1                        l8295 034E                        l8287 0330  
                      l8279 0306                        l7665 0DC3                        l7657 0DB1  
                      l7673 00E0                        l7729 0DF5                        l7817 0E58  
                      l7809 0E4D                        l7825 0E0E                        l7921 0651  
                      l7913 0641                        l7905 0623                        l7841 0550  
                      l7833 0531                        l8393 04FD                        l8385 04CF  
                      l8377 04BB                        l8369 0495                        l8297 0355  
                      l8289 0335                        l7659 0DB7                        l7675 00E1  
                      l7667 00CC                        l7771 0E72                        l7819 0E5E  
                      l7827 0E1B                        l7931 0677                        l7923 065F  
                      l7915 0648                        l7907 0629                        l7851 0571  
                      l7843 0551                        l7835 053A                        l8395 050A  
                      l8387 04D8                        l8379 04BE                        l8299 035A  
                      l7669 00DE                        l7781 0E83                        l7773 0E76  
                      l7765 0E63                        l7829 0E29                        l7941 0698  
                      l7933 0678                        l7925 0668                        l7917 064A  
                      l7909 062A                        l7861 0596                        l7853 0577  
                      l7845 055F                        l7837 053E                        l8397 050E  
                      l8389 04E5                        l7783 0E88                        l7775 0E78  
                      l7767 0E67                        l7951 06B5                        l7943 069E  
                      l7935 0686                        l7927 066F                        l7919 0650  
                      l7871 05B6                        l7863 0598                        l7855 0578  
                      l7847 0568                        l7839 0542                        l8399 051C  
                      l7785 0E8C                        l7777 0E7D                        l7769 0E6B  
                      l7961 06DB                        l7953 06C3                        l7945 06A2  
                      l7937 068F                        l7929 0671                        l7881 05D4  
                      l7873 05BD                        l7865 059E                        l7857 0586  
                      l7849 056F                        l7787 0E8E                        l7779 0E81  
                      l7971 06FC                        l7963 06DC                        l7955 06CC  
                      l7947 06A6                        l7939 0696                        l7891 05F0  
                      l7883 05DD                        l7875 05BF                        l7867 059F  
                      l7859 058F                        l7797 0DCD                        l7981 0721  
                      l7973 0702                        l7965 06EA                        l7957 06D3  
                      l7949 06B4                        l7893 05F4                        l7885 05E4  
                      l7877 05C5                        l7869 05AD                        l7799 0DE2  
                      l7991 0741                        l7983 0723                        l7975 0703  
                      l7967 06F3                        l7959 06D5                        l7895 0602  
                      l7887 05E6                        l7879 05C6                        l7993 0748  
                      l7985 0729                        l7977 0711                        l7969 06FA  
                      l7897 0603                        l7889 05EC                        l7995 074A  
                      l7987 072A                        l7979 071A                        l7899 0611  
                      l7997 0750                        l7989 0738                        l7999 0754  
                      STR_1 008A                        STR_2 009B                        STR_3 0079  
                      STR_4 0024                        STR_5 00BC                        STR_6 00AC  
                      STR_7 0013                        STR_8 0046                        STR_9 0013  
                      u4000 0E0E                        u4001 0E0D                        u4100 0576  
                      u4101 0575                        u4030 0E28                        u4110 0595  
                      u4031 0E27                        u4015 0E15                        u4111 0594  
                      u4200 0601                        u4120 059D                        u4040 053A  
                      u4025 0E1C                        u4201 0600                        u4121 059C  
                      u4041 0539                        u4210 0620                        u4130 05BC  
                      u4050 053E                        u4211 061F                        u4131 05BB  
                      u4051 053D                        u4300 06A6                        u4220 0628  
                      u4140 05C4                        u4060 0542                        u4301 06A5  
                      u4221 0627                        u4141 05C3                        u4061 0541  
                      u4310 06AA                        u4230 0647                        u4150 05E3  
                      u4070 0546                        u4311 06A9                        u4231 0646  
                      u4151 05E2                        u4071 0545                        u5007 013F  
                      u4400 0750                        u4320 06B3                        u4240 064F  
                      u4160 05EC                        u4080 054F                        u4401 074F  
                      u4321 06B2                        u4241 064E                        u4161 05EB  
                      u4081 054E                        u5017 014B                        u4410 0754  
                      u4330 06D2                        u4250 066E                        u4170 05F0  
                      u4090 056E                        u4411 0753                        u4331 06D1  
                      u4251 066D                        u4171 05EF                        u4091 056D  
                      u5107 0F74                        u5027 0156                        u4500 07DA  
                      u4420 0758                        u4340 06DA                        u4260 0676  
                      u4180 05F4                        u4501 07D9                        u4421 0757  
                      u4341 06D9                        u4261 0675                        u4181 05F3  
                      u5117 0EDD                        u5037 0161                        u4510 07F9  
                      u4430 075C                        u4350 06F9                        u4270 0695  
                      u4190 05F8                        u4511 07F8                        u4431 075B  
                      u4351 06F8                        u4271 0694                        u4191 05F7  
                      u5207 05D8                        u5127 0EE4                        u5047 016E  
                      u3800 0DB7                        u4440 0765                        u4360 0701  
                      u4280 069E                        u4600 0EC5                        u3801 0DB6  
                      u4441 0764                        u4361 0700                        u4281 069D  
                      u5217 0615                        u5137 0EEE                        u5057 0F37  
                      u4601 0EC4                        u3810 0DBD                        u4450 0784  
                      u4370 0720                        u4290 06A2                        u4530 0F88  
                      u4610 01BF                        u3811 0DBC                        u5307 07A0  
                      u4451 0783                        u4371 071F                        u4291 06A1  
                      u5227 063C                        u5147 0F09                        u4531 0F87  
                      u5067 0F3E                        u4611 01BE                        u4460 078C  
                      u4380 0728                        u4540 0F90                        u4620 01E3  
                      u4700 02E8                        u5317 07C7                        u4461 078B  
                      u4381 0727                        u5237 0663                        u5157 0F10  
                      u4525 0EF4                        u4541 0F8F                        u5077 0F48  
                      u4621 01E2                        u4701 02E7                        u3910 0E05  
                      u4470 07AB                        u4390 0747                        u4550 0F9C  
                      u4630 020C                        u4710 0310                        u3911 0E04  
                      u5327 07EE                        u4471 07AA                        u4391 0746  
                      u5247 068A                        u5167 0F1A                        u4551 0F9B  
                      u5087 0F63                        u4631 020B                        u4711 030F  
                      u3920 0E67                        u4480 07B3                        u4560 0FAD  
                      u4640 0216                        u4800 045E                        u4720 0369  
                      u3921 0E66                        u4481 07B2                        u5257 06C7  
                      u5177 0563                        u4561 0FAC                        u5097 0F6A  
                      u4641 0215                        u4801 045D                        u4721 0368  
                      u3930 0E76                        u4490 07D2                        u4570 0FE6  
                      u4650 0244                        u4810 0487                        u4730 0376  
                      u3915 0E01                        u3931 0E75                        u4491 07D1  
                      u5267 06EE                        u5187 058A                        u4571 0FE5  
                      u4651 0243                        u4635 0208                        u4811 0486  
                      u4731 0375                        u3940 0E81                        u4580 0FEB  
                      u4660 0268                        u4820 0494                        u4740 03A8  
                      u3941 0E80                        u5277 0715                        u5197 05B1  
                      u4661 0267                        u4645 0212                        u4821 0493  
                      u4805 045A                        u4741 03A7                        u3950 0E8C  
                      u4670 0270                        u4830 04D7                        u4750 03D2  
                      u3951 0E8B                        u5287 073C                        u4671 026F  
                      u4831 04D6                        u4751 03D1                        u3960 0DCC  
                      u4680 028C                        u4840 04E4                        u4760 03DB  
                      u3961 0DCB                        u5297 0779                        u4681 028B  
                      u4841 04E3                        u4761 03DA                        u3970 0E39  
                      u4850 04FC                        u4770 03E3                        u4690 02DB  
                      u3971 0E38                        u4595 0F4E                        u4851 04FB  
                      u4907 047A                        u4771 03E2                        u4691 02DA  
                      u3980 0E4D                        u4860 0509                        u4780 041F  
                      u3981 0E4C                        u4861 0508                        u4917 04CA  
                      u4781 041E                        u3990 0E5E                        u4790 0446  
                      u3991 0E5D                        u4927 04EF                        u4791 0445  
                      u4937 0180                        u4947 00F1                        u4957 00FF  
                      u4877 035C                        u4967 010D                        u4887 0383  
                      u4977 0119                        u4897 03B9                        u4987 0124  
                      u4997 0131                        _WREN 0C62                        _Col1 0038  
                      _Col2 0039                        _Col3 003A                        _Col4 003B  
            ??_eeprom_write 0071                        _Row1 0028                        _Row2 0029  
                      _Row3 002A                        _Row4 002B                        _atoi 0F78  
                      _main 02B5                        btemp 007E            ??_ChangePassWord 0020  
                      start 0000          __size_of_LCD_Write 005A      __end_of_LCD_Initialize 0174  
          __end_of_LCD_Disp 0EC7                       ?_atoi 0076                       ?_main 0070  
                     _EEADR 010D                       STR_10 0035                       STR_11 0013  
                     STR_12 0057                       STR_13 0068                       STR_14 0013  
                     STR_15 0013                       _CARRY 0018                       _CMCON 009C  
                     _PORTB 0006                       _PORTD 0008                       _TRISA 0085  
                     _TRISB 0086                       _TRISC 0087                       _TRISD 0088  
           __end_of_isdigit 0DC4         __size_of_LCD_Allort 0032                       atoi@a 007B  
                     atoi@s 007D                       main@k 0033                       pclath 000A  
                     status 0003                       wtemp0 007E            __end_of_FetchKey 0800  
           ?_LCD_Initialize 0070                  _LocalArray 003C                  _LocalCount 003A  
              __end_of_atoi 1000                __end_of_main 0530                      ??_atoi 0078  
                    ??_main 0023           __end_of_LCD_Write 0F78                      _ADCON1 009F  
                    _EEDATA 010C                      _EECON1 018C                      _EECON2 018D  
 FetchKey@ButtonPressedTime 0072        __size_of_eeprom_read 001F                      ___wmul 0E07  
                    _memset 0DE3        __end_of_eeprom_write 0E62        __size_of_LCD_Command 0057  
                 ??_isdigit 0070                   ?_LCD_Disp 0077             eeprom_read@addr 0071  
            __pcstackCOMMON 0070                ??_LCD_Allort 0070           eeprom_write@value 0070  
                 ?_FetchKey 0070                  __pbssBANK0 0034          __end_of_LCD_Allort 0E94  
                ??_LCD_Disp 0079                  __pmaintext 02B5                     ?___wmul 0070  
    LCD_Command@CommandData 0073                     ?_memset 0070                  ??_FetchKey 0070  
          ??_LCD_Initialize 0074       __size_of_eeprom_write 0031              LCD_Allort@Data 0071  
           __size_of___wmul 002A             __size_of_memset 0024             _KeyDebounceTime 0041  
                   _isdigit 0DAF                   _LCD_Write 0F1E        end_of_initialization 0DAB  
                   memset@c 0070                     memset@n 0072                     memset@p 0076  
              _eeprom_write 0E31     __size_of_ChangePassWord 0141                _LastPassWord 0038  
                ?_LCD_Write 0074               ??_eeprom_read 0070           __size_of_LCD_Disp 0033  
             ??_LCD_Command 0072              __end_of___wmul 0E31              __end_of_memset 0E07  
       start_initialization 0D9C           __size_of_FetchKey 02D0                    ??___wmul 0074  
       __end_of_eeprom_read 0DE3                    ??_memset 0074         __end_of_LCD_Command 0F1E  
             __pcstackBANK0 0020            _DetectedPassWord 0034                _isdigit$4926 0070  
               ??_LCD_Write 0075            eeprom_write@addr 0072       main@RequireDelay_3940 0029  
     main@RequireDelay_3942 002B       main@RequireDelay_3936 0027                   _main$3926 002D  
                 __ptext420 00E3                   __ptext421 0F1E                   __ptext430 00CC  
                 __ptext422 0F78                   __ptext431 0DAF                   __ptext423 0EC7  
                 __ptext432 0000                   __ptext424 0530                   __ptext425 0E07  
                 __ptext417 0000                   __ptext426 0E31                   __ptext418 0174  
                 __ptext427 0DC4                   __ptext419 0E94                   __ptext428 0E62  
                 __ptext429 0DE3            main@RequireDelay 0025              _ChangePassWord 0174  
                 __pstrings 0003                    ?_isdigit 0070        LCD_Write@CommandData 0076  
      LCD_Write@DisplayData 0074                    _LCD_Disp 0E94              ___wmul@product 0074  
               _eeprom_read 0DC4      __end_of_ChangePassWord 02B5                 _LCD_Command 0EC7  
               __stringbase 0012           ___wmul@multiplier 0070                    _FetchKey 0530  
              FetchKey@Var1 0074             ChangePassWord@k 0022             ?_ChangePassWord 0070  
                  _Position 003B     __size_of_LCD_Initialize 0091             _LastDetectedKey 0036  
          __size_of_isdigit 0015           _Keypad_Initialize 00CC          ?_Keypad_Initialize 0070  
             __size_of_atoi 0088               __size_of_main 027B         ??_Keypad_Initialize 0070  
       LCD_Disp@DisplayData 0077                  _LCD_Allort 0E62            main@RoutineDelay 002F  
                  atoi@sign 007A       main@RoutineDelay_3941 0032       main@RoutineDelay_3935 0030  
     main@RoutineDelay_3939 0031   __end_of_Keypad_Initialize 00E3                    isdigit@c 0071  
                  memset@p1 0075      LCD_Disp@DisplayAddress 007A                   stringcode 000D  
                  stringdir 000D                    stringtab 0003               ?_eeprom_write 0070  
              ?_eeprom_read 0070  
