opt subtitle "HI-TECH Software Omniscient Code Generator (Lite mode) build 9453"

opt pagewidth 120

	opt lm

	processor	16F877A
clrc	macro
	bcf	3,0
	endm
clrz	macro
	bcf	3,2
	endm
setc	macro
	bsf	3,0
	endm
setz	macro
	bsf	3,2
	endm
skipc	macro
	btfss	3,0
	endm
skipz	macro
	btfss	3,2
	endm
skipnc	macro
	btfsc	3,0
	endm
skipnz	macro
	btfsc	3,2
	endm
indf	equ	0
indf0	equ	0
pc	equ	2
pcl	equ	2
status	equ	3
fsr	equ	4
fsr0	equ	4
c	equ	1
z	equ	0
pclath	equ	10
	FNCALL	_main,_eeprom_read
	FNCALL	_main,_atoi
	FNCALL	_main,_memset
	FNCALL	_main,_LCD_Initialize
	FNCALL	_main,_Keypad_Initialize
	FNCALL	_main,_LCD_Disp
	FNCALL	_main,_LCD_Command
	FNCALL	_main,_FetchKey
	FNCALL	_main,_ChangePassWord
	FNCALL	_main,_LCD_Write
	FNCALL	_main,_isdigit
	FNCALL	_ChangePassWord,_LCD_Command
	FNCALL	_ChangePassWord,_memset
	FNCALL	_ChangePassWord,_LCD_Disp
	FNCALL	_ChangePassWord,_FetchKey
	FNCALL	_ChangePassWord,_isdigit
	FNCALL	_ChangePassWord,_LCD_Write
	FNCALL	_ChangePassWord,_atoi
	FNCALL	_ChangePassWord,_eeprom_write
	FNCALL	_LCD_Disp,_LCD_Write
	FNCALL	_LCD_Initialize,_LCD_Command
	FNCALL	_LCD_Write,_LCD_Command
	FNCALL	_LCD_Write,_LCD_Allort
	FNCALL	_atoi,___wmul
	FNCALL	_atoi,_isdigit
	FNCALL	_LCD_Command,_LCD_Allort
	FNROOT	_main
	global	_DetectedPassWord
	global	_LastDetectedKey
	global	_LastPassWord
	global	_LocalCount
	global	_Position
	global	_LocalArray
	global	_KeyDebounceTime
	global	_PORTB
psect	text417,local,class=CODE,delta=2
global __ptext417
__ptext417:
_PORTB	set	6
	global	_PORTD
_PORTD	set	8
	global	_CARRY
_CARRY	set	24
	global	_Col1
_Col1	set	56
	global	_Col2
_Col2	set	57
	global	_Col3
_Col3	set	58
	global	_Col4
_Col4	set	59
	global	_GIE
_GIE	set	95
	global	_Row1
_Row1	set	40
	global	_Row2
_Row2	set	41
	global	_Row3
_Row3	set	42
	global	_Row4
_Row4	set	43
	global	_ADCON1
_ADCON1	set	159
	global	_CMCON
_CMCON	set	156
	global	_TRISA
_TRISA	set	133
	global	_TRISB
_TRISB	set	134
	global	_TRISC
_TRISC	set	135
	global	_TRISD
_TRISD	set	136
	global	_EEADR
_EEADR	set	269
	global	_EEDATA
_EEDATA	set	268
	global	_EECON1
_EECON1	set	396
	global	_EECON2
_EECON2	set	397
	global	_RD
_RD	set	3168
	global	_WR
_WR	set	3169
	global	_WREN
_WREN	set	3170
psect	strings,class=STRING,delta=2
global __pstrings
__pstrings:
;	global	stringdir,stringtab,__stringbase
stringtab:
;	String table - string pointers are 1 byte each
	btfsc	(btemp+1),7
	ljmp	stringcode
	bcf	status,7
	btfsc	(btemp+1),0
	bsf	status,7
	movf	indf,w
	incf fsr
skipnz
incf btemp+1
	return
stringcode:stringdir:
movlw high(stringdir)
movwf pclath
movf fsr,w
incf fsr
	addwf pc
__stringbase:
	retlw	0
psect	strings
	
STR_7:	
	retlw	32	;' '
	retlw	32	;' '
	retlw	32	;' '
	retlw	32	;' '
	retlw	32	;' '
	retlw	32	;' '
	retlw	32	;' '
	retlw	32	;' '
	retlw	32	;' '
	retlw	32	;' '
	retlw	32	;' '
	retlw	32	;' '
	retlw	32	;' '
	retlw	32	;' '
	retlw	32	;' '
	retlw	32	;' '
	retlw	0
psect	strings
	
STR_4:	
	retlw	32	;' '
	retlw	32	;' '
	retlw	32	;' '
	retlw	32	;' '
	retlw	32	;' '
	retlw	83	;'S'
	retlw	89	;'Y'
	retlw	83	;'S'
	retlw	84	;'T'
	retlw	69	;'E'
	retlw	77	;'M'
	retlw	32	;' '
	retlw	32	;' '
	retlw	32	;' '
	retlw	32	;' '
	retlw	32	;' '
	retlw	0
psect	strings
	
STR_10:	
	retlw	80	;'P'
	retlw	65	;'A'
	retlw	83	;'S'
	retlw	83	;'S'
	retlw	87	;'W'
	retlw	79	;'O'
	retlw	82	;'R'
	retlw	68	;'D'
	retlw	32	;' '
	retlw	78	;'N'
	retlw	84	;'T'
	retlw	32	;' '
	retlw	77	;'M'
	retlw	65	;'A'
	retlw	84	;'T'
	retlw	67	;'C'
	retlw	0
psect	strings
	
STR_8:	
	retlw	80	;'P'
	retlw	65	;'A'
	retlw	83	;'S'
	retlw	83	;'S'
	retlw	87	;'W'
	retlw	79	;'O'
	retlw	82	;'R'
	retlw	68	;'D'
	retlw	32	;' '
	retlw	77	;'M'
	retlw	65	;'A'
	retlw	84	;'T'
	retlw	67	;'C'
	retlw	72	;'H'
	retlw	69	;'E'
	retlw	68	;'D'
	retlw	0
psect	strings
	
STR_12:	
	retlw	69	;'E'
	retlw	78	;'N'
	retlw	84	;'T'
	retlw	69	;'E'
	retlw	82	;'R'
	retlw	32	;' '
	retlw	79	;'O'
	retlw	76	;'L'
	retlw	68	;'D'
	retlw	32	;' '
	retlw	80	;'P'
	retlw	65	;'A'
	retlw	83	;'S'
	retlw	87	;'W'
	retlw	82	;'R'
	retlw	68	;'D'
	retlw	0
psect	strings
	
STR_13:	
	retlw	69	;'E'
	retlw	78	;'N'
	retlw	84	;'T'
	retlw	69	;'E'
	retlw	82	;'R'
	retlw	32	;' '
	retlw	78	;'N'
	retlw	69	;'E'
	retlw	87	;'W'
	retlw	32	;' '
	retlw	80	;'P'
	retlw	65	;'A'
	retlw	83	;'S'
	retlw	87	;'W'
	retlw	82	;'R'
	retlw	68	;'D'
	retlw	0
psect	strings
	
STR_3:	
	retlw	80	;'P'
	retlw	65	;'A'
	retlw	83	;'S'
	retlw	87	;'W'
	retlw	82	;'R'
	retlw	68	;'D'
	retlw	32	;' '
	retlw	66	;'B'
	retlw	65	;'A'
	retlw	83	;'S'
	retlw	69	;'E'
	retlw	32	;' '
	retlw	80	;'P'
	retlw	79	;'O'
	retlw	87	;'W'
	retlw	69	;'E'
	retlw	0
psect	strings
	
STR_1:	
	retlw	84	;'T'
	retlw	73	;'I'
	retlw	77	;'M'
	retlw	69	;'E'
	retlw	58	;':'
	retlw	32	;' '
	retlw	32	;' '
	retlw	45	;'-'
	retlw	32	;' '
	retlw	32	;' '
	retlw	45	;'-'
	retlw	32	;' '
	retlw	32	;' '
	retlw	32	;' '
	retlw	32	;' '
	retlw	32	;' '
	retlw	0
psect	strings
	
STR_2:	
	retlw	68	;'D'
	retlw	65	;'A'
	retlw	84	;'T'
	retlw	69	;'E'
	retlw	58	;':'
	retlw	32	;' '
	retlw	32	;' '
	retlw	47	;'/'
	retlw	32	;' '
	retlw	32	;' '
	retlw	47	;'/'
	retlw	32	;' '
	retlw	32	;' '
	retlw	32	;' '
	retlw	32	;' '
	retlw	32	;' '
	retlw	0
psect	strings
	
STR_6:	
	retlw	69	;'E'
	retlw	78	;'N'
	retlw	84	;'T'
	retlw	69	;'E'
	retlw	82	;'R'
	retlw	32	;' '
	retlw	80	;'P'
	retlw	65	;'A'
	retlw	83	;'S'
	retlw	83	;'S'
	retlw	87	;'W'
	retlw	79	;'O'
	retlw	82	;'R'
	retlw	68	;'D'
	retlw	32	;' '
	retlw	0
psect	strings
	
STR_5:	
	retlw	69	;'E'
	retlw	78	;'N'
	retlw	84	;'T'
	retlw	69	;'E'
	retlw	82	;'R'
	retlw	32	;' '
	retlw	80	;'P'
	retlw	65	;'A'
	retlw	83	;'S'
	retlw	83	;'S'
	retlw	87	;'W'
	retlw	79	;'O'
	retlw	82	;'R'
	retlw	68	;'D'
	retlw	0
psect	strings
STR_9	equ	STR_7+0
STR_11	equ	STR_7+0
STR_14	equ	STR_7+0
STR_15	equ	STR_7+0
	file	"Project.as"
	line	#
psect cinit,class=CODE,delta=2
global start_initialization
start_initialization:

psect	bssBANK0,class=BANK0,space=1
global __pbssBANK0
__pbssBANK0:
_DetectedPassWord:
       ds      2

_LastDetectedKey:
       ds      2

_LastPassWord:
       ds      2

_LocalCount:
       ds      1

_Position:
       ds      1

_LocalArray:
       ds      5

_KeyDebounceTime:
       ds      2

; Clear objects allocated to BANK0
psect cinit,class=CODE,delta=2
	clrf	((__pbssBANK0)+0)&07Fh
	clrf	((__pbssBANK0)+1)&07Fh
	clrf	((__pbssBANK0)+2)&07Fh
	clrf	((__pbssBANK0)+3)&07Fh
	clrf	((__pbssBANK0)+4)&07Fh
	clrf	((__pbssBANK0)+5)&07Fh
	clrf	((__pbssBANK0)+6)&07Fh
	clrf	((__pbssBANK0)+7)&07Fh
	clrf	((__pbssBANK0)+8)&07Fh
	clrf	((__pbssBANK0)+9)&07Fh
	clrf	((__pbssBANK0)+10)&07Fh
	clrf	((__pbssBANK0)+11)&07Fh
	clrf	((__pbssBANK0)+12)&07Fh
	clrf	((__pbssBANK0)+13)&07Fh
	clrf	((__pbssBANK0)+14)&07Fh
psect cinit,class=CODE,delta=2
global end_of_initialization

;End of C runtime variable initialization code

end_of_initialization:
clrf status
ljmp _main	;jump to C main() function
psect	cstackCOMMON,class=COMMON,space=1
global __pcstackCOMMON
__pcstackCOMMON:
	global	?_isdigit
?_isdigit:	; 1 bit 
	global	??_isdigit
??_isdigit:	; 0 bytes @ 0x0
	global	?_LCD_Command
?_LCD_Command:	; 0 bytes @ 0x0
	global	?_LCD_Allort
?_LCD_Allort:	; 0 bytes @ 0x0
	global	??_LCD_Allort
??_LCD_Allort:	; 0 bytes @ 0x0
	global	??_eeprom_read
??_eeprom_read:	; 0 bytes @ 0x0
	global	?_ChangePassWord
?_ChangePassWord:	; 0 bytes @ 0x0
	global	?_Keypad_Initialize
?_Keypad_Initialize:	; 0 bytes @ 0x0
	global	??_Keypad_Initialize
??_Keypad_Initialize:	; 0 bytes @ 0x0
	global	??_FetchKey
??_FetchKey:	; 0 bytes @ 0x0
	global	?_LCD_Initialize
?_LCD_Initialize:	; 0 bytes @ 0x0
	global	?_main
?_main:	; 0 bytes @ 0x0
	global	?_memset
?_memset:	; 1 bytes @ 0x0
	global	?_eeprom_read
?_eeprom_read:	; 1 bytes @ 0x0
	global	?_eeprom_write
?_eeprom_write:	; 1 bytes @ 0x0
	global	?_FetchKey
?_FetchKey:	; 1 bytes @ 0x0
	global	?___wmul
?___wmul:	; 2 bytes @ 0x0
	global	eeprom_write@value
eeprom_write@value:	; 1 bytes @ 0x0
	global	_isdigit$4926
_isdigit$4926:	; 1 bytes @ 0x0
	global	memset@c
memset@c:	; 2 bytes @ 0x0
	global	___wmul@multiplier
___wmul@multiplier:	; 2 bytes @ 0x0
	ds	1
	global	??_eeprom_write
??_eeprom_write:	; 0 bytes @ 0x1
	global	LCD_Allort@Data
LCD_Allort@Data:	; 1 bytes @ 0x1
	global	eeprom_read@addr
eeprom_read@addr:	; 1 bytes @ 0x1
	global	isdigit@c
isdigit@c:	; 1 bytes @ 0x1
	ds	1
	global	??_LCD_Command
??_LCD_Command:	; 0 bytes @ 0x2
	global	eeprom_write@addr
eeprom_write@addr:	; 1 bytes @ 0x2
	global	FetchKey@ButtonPressedTime
FetchKey@ButtonPressedTime:	; 2 bytes @ 0x2
	global	memset@n
memset@n:	; 2 bytes @ 0x2
	global	___wmul@multiplicand
___wmul@multiplicand:	; 2 bytes @ 0x2
	ds	1
	global	LCD_Command@CommandData
LCD_Command@CommandData:	; 1 bytes @ 0x3
	ds	1
	global	?_LCD_Write
?_LCD_Write:	; 0 bytes @ 0x4
	global	??_memset
??_memset:	; 0 bytes @ 0x4
	global	??_LCD_Initialize
??_LCD_Initialize:	; 0 bytes @ 0x4
	global	??___wmul
??___wmul:	; 0 bytes @ 0x4
	global	FetchKey@Var1
FetchKey@Var1:	; 1 bytes @ 0x4
	global	LCD_Write@DisplayData
LCD_Write@DisplayData:	; 1 bytes @ 0x4
	global	___wmul@product
___wmul@product:	; 2 bytes @ 0x4
	ds	1
	global	??_LCD_Write
??_LCD_Write:	; 0 bytes @ 0x5
	global	memset@p1
memset@p1:	; 1 bytes @ 0x5
	ds	1
	global	?_atoi
?_atoi:	; 2 bytes @ 0x6
	global	LCD_Write@CommandData
LCD_Write@CommandData:	; 1 bytes @ 0x6
	global	memset@p
memset@p:	; 1 bytes @ 0x6
	ds	1
	global	?_LCD_Disp
?_LCD_Disp:	; 0 bytes @ 0x7
	global	LCD_Disp@DisplayData
LCD_Disp@DisplayData:	; 2 bytes @ 0x7
	ds	1
	global	??_atoi
??_atoi:	; 0 bytes @ 0x8
	ds	1
	global	??_LCD_Disp
??_LCD_Disp:	; 0 bytes @ 0x9
	ds	1
	global	LCD_Disp@DisplayAddress
LCD_Disp@DisplayAddress:	; 1 bytes @ 0xA
	global	atoi@sign
atoi@sign:	; 1 bytes @ 0xA
	ds	1
	global	atoi@a
atoi@a:	; 2 bytes @ 0xB
	ds	2
	global	atoi@s
atoi@s:	; 1 bytes @ 0xD
	ds	1
psect	cstackBANK0,class=BANK0,space=1
global __pcstackBANK0
__pcstackBANK0:
	global	??_ChangePassWord
??_ChangePassWord:	; 0 bytes @ 0x0
	ds	2
	global	ChangePassWord@k
ChangePassWord@k:	; 1 bytes @ 0x2
	ds	1
	global	??_main
??_main:	; 0 bytes @ 0x3
	ds	2
	global	main@RequireDelay
main@RequireDelay:	; 2 bytes @ 0x5
	ds	2
	global	main@RequireDelay_3936
main@RequireDelay_3936:	; 2 bytes @ 0x7
	ds	2
	global	main@RequireDelay_3940
main@RequireDelay_3940:	; 2 bytes @ 0x9
	ds	2
	global	main@RequireDelay_3942
main@RequireDelay_3942:	; 2 bytes @ 0xB
	ds	2
	global	_main$3926
_main$3926:	; 2 bytes @ 0xD
	ds	2
	global	main@RoutineDelay
main@RoutineDelay:	; 1 bytes @ 0xF
	ds	1
	global	main@RoutineDelay_3935
main@RoutineDelay_3935:	; 1 bytes @ 0x10
	ds	1
	global	main@RoutineDelay_3939
main@RoutineDelay_3939:	; 1 bytes @ 0x11
	ds	1
	global	main@RoutineDelay_3941
main@RoutineDelay_3941:	; 1 bytes @ 0x12
	ds	1
	global	main@k
main@k:	; 1 bytes @ 0x13
	ds	1
;;Data sizes: Strings 184, constant 0, data 0, bss 15, persistent 0 stack 0
;;Auto spaces:   Size  Autos    Used
;; COMMON          14     14      14
;; BANK0           80     20      35
;; BANK1           80      0       0
;; BANK3           96      0       0
;; BANK2           96      0       0

;;
;; Pointer list with targets:

;; ?___wmul	unsigned int  size(1) Largest target is 0
;;
;; ?_atoi	int  size(1) Largest target is 0
;;
;; ?_memset	PTR void  size(1) Largest target is 5
;;		 -> LocalArray(BANK0[5]), RTC_Keypad@LocalArray(COMMON[4]), 
;;
;; memset@p1	PTR void  size(1) Largest target is 5
;;		 -> LocalArray(BANK0[5]), RTC_Keypad@LocalArray(COMMON[4]), 
;;
;; memset@p	PTR unsigned char  size(1) Largest target is 5
;;		 -> LocalArray(BANK0[5]), RTC_Keypad@LocalArray(COMMON[4]), 
;;
;; atoi@s	PTR const unsigned char  size(1) Largest target is 5
;;		 -> LocalArray(BANK0[5]), RTC_Keypad@LocalArray(COMMON[4]), 
;;
;; LCD_Disp@DisplayData	PTR const unsigned char  size(2) Largest target is 17
;;		 -> STR_15(CODE[17]), STR_14(CODE[17]), STR_13(CODE[17]), STR_12(CODE[17]), 
;;		 -> STR_11(CODE[17]), STR_10(CODE[17]), STR_9(CODE[17]), STR_8(CODE[17]), 
;;		 -> STR_7(CODE[17]), STR_6(CODE[16]), STR_5(CODE[15]), STR_4(CODE[17]), 
;;		 -> STR_3(CODE[17]), LCD_Float@LocalArray(COMMON[10]), LCD_Decimal@LocalArray(COMMON[10]), STR_2(CODE[17]), 
;;		 -> STR_1(CODE[17]), 
;;
;; sp__memset	PTR void  size(1) Largest target is 5
;;		 -> LocalArray(BANK0[5]), RTC_Keypad@LocalArray(COMMON[4]), 
;;
;; FetchKey@Var1	PTR unsigned int  size(1) Largest target is 2
;;		 -> KeyDebounceTime(BANK0[2]), Keypad@KeyFetchTime(COMMON[2]), 
;;
;; sp__strchr	PTR unsigned char  size(1) Largest target is 0
;;		 -> NULL(NULL[0]), 
;;
;; sp__strstr	PTR unsigned char  size(1) Largest target is 0
;;		 -> NULL(NULL[0]), 
;;
;; sp__smemmem	PTR void  size(1) Largest target is 0
;;		 -> NULL(NULL[0]), 
;;
;; sp__smemrchr	PTR unsigned char  size(1) Largest target is 0
;;		 -> NULL(NULL[0]), 
;;
;; sp__smemchr	PTR unsigned char  size(1) Largest target is 0
;;		 -> NULL(NULL[0]), 
;;


;;
;; Critical Paths under _main in COMMON
;;
;;   _main->_atoi
;;   _ChangePassWord->_atoi
;;   _LCD_Disp->_LCD_Write
;;   _LCD_Initialize->_LCD_Command
;;   _LCD_Write->_LCD_Command
;;   _atoi->___wmul
;;   _LCD_Command->_LCD_Allort
;;
;; Critical Paths under _main in BANK0
;;
;;   _main->_ChangePassWord
;;
;; Critical Paths under _main in BANK1
;;
;;   None.
;;
;; Critical Paths under _main in BANK3
;;
;;   None.
;;
;; Critical Paths under _main in BANK2
;;
;;   None.

;;
;;Main: autosize = 0, tempsize = 2, incstack = 0, save=0
;;

;;
;;Call Graph Tables:
;;
;; ---------------------------------------------------------------------------------
;; (Depth) Function   	        Calls       Base Space   Used Autos Params    Refs
;; ---------------------------------------------------------------------------------
;; (0) _main                                                17    17      0    4672
;;                                              3 BANK0     17    17      0
;;                        _eeprom_read
;;                               _atoi
;;                             _memset
;;                     _LCD_Initialize
;;                  _Keypad_Initialize
;;                           _LCD_Disp
;;                        _LCD_Command
;;                           _FetchKey
;;                     _ChangePassWord
;;                          _LCD_Write
;;                            _isdigit
;; ---------------------------------------------------------------------------------
;; (1) _ChangePassWord                                       3     3      0    2169
;;                                              0 BANK0      3     3      0
;;                        _LCD_Command
;;                             _memset
;;                           _LCD_Disp
;;                           _FetchKey
;;                            _isdigit
;;                          _LCD_Write
;;                               _atoi
;;                       _eeprom_write
;; ---------------------------------------------------------------------------------
;; (2) _LCD_Disp                                             4     2      2     354
;;                                              7 COMMON     4     2      2
;;                          _LCD_Write
;; ---------------------------------------------------------------------------------
;; (1) _LCD_Initialize                                       2     2      0     132
;;                                              4 COMMON     2     2      0
;;                        _LCD_Command
;; ---------------------------------------------------------------------------------
;; (1) _LCD_Write                                            3     2      1     286
;;                                              4 COMMON     3     2      1
;;                        _LCD_Command
;;                         _LCD_Allort
;; ---------------------------------------------------------------------------------
;; (2) _atoi                                                 8     6      2     388
;;                                              6 COMMON     8     6      2
;;                             ___wmul
;;                            _isdigit
;; ---------------------------------------------------------------------------------
;; (2) _LCD_Command                                          2     2      0     132
;;                                              2 COMMON     2     2      0
;;                         _LCD_Allort
;; ---------------------------------------------------------------------------------
;; (2) _FetchKey                                             5     5      0     705
;;                                              0 COMMON     5     5      0
;; ---------------------------------------------------------------------------------
;; (3) ___wmul                                               6     2      4      92
;;                                              0 COMMON     6     2      4
;; ---------------------------------------------------------------------------------
;; (2) _eeprom_write                                         3     2      1      50
;;                                              0 COMMON     3     2      1
;; ---------------------------------------------------------------------------------
;; (1) _eeprom_read                                          2     2      0      22
;;                                              0 COMMON     2     2      0
;; ---------------------------------------------------------------------------------
;; (2) _LCD_Allort                                           2     2      0      88
;;                                              0 COMMON     2     2      0
;; ---------------------------------------------------------------------------------
;; (2) _memset                                               7     3      4      96
;;                                              0 COMMON     7     3      4
;; ---------------------------------------------------------------------------------
;; (1) _Keypad_Initialize                                    1     1      0       0
;;                                              0 COMMON     1     1      0
;; ---------------------------------------------------------------------------------
;; (1) _isdigit                                              2     2      0      68
;;                                              0 COMMON     2     2      0
;; ---------------------------------------------------------------------------------
;; Estimated maximum stack depth 3
;; ---------------------------------------------------------------------------------

;; Call Graph Graphs:

;; _main (ROOT)
;;   _eeprom_read
;;   _atoi
;;     ___wmul
;;     _isdigit
;;   _memset
;;   _LCD_Initialize
;;     _LCD_Command
;;       _LCD_Allort
;;   _Keypad_Initialize
;;   _LCD_Disp
;;     _LCD_Write
;;       _LCD_Command
;;         _LCD_Allort
;;       _LCD_Allort
;;   _LCD_Command
;;     _LCD_Allort
;;   _FetchKey
;;   _ChangePassWord
;;     _LCD_Command
;;       _LCD_Allort
;;     _memset
;;     _LCD_Disp
;;       _LCD_Write
;;         _LCD_Command
;;           _LCD_Allort
;;         _LCD_Allort
;;     _FetchKey
;;     _isdigit
;;     _LCD_Write
;;       _LCD_Command
;;         _LCD_Allort
;;       _LCD_Allort
;;     _atoi
;;       ___wmul
;;       _isdigit
;;     _eeprom_write
;;   _LCD_Write
;;     _LCD_Command
;;       _LCD_Allort
;;     _LCD_Allort
;;   _isdigit
;;

;; Address spaces:

;;Name               Size   Autos  Total    Cost      Usage
;;BITCOMMON            E      0       0       0        0.0%
;;EEDATA             100      0       0       0        0.0%
;;NULL                 0      0       0       0        0.0%
;;CODE                 0      0       0       0        0.0%
;;COMMON               E      E       E       1      100.0%
;;BITSFR0              0      0       0       1        0.0%
;;SFR0                 0      0       0       1        0.0%
;;BITSFR1              0      0       0       2        0.0%
;;SFR1                 0      0       0       2        0.0%
;;STACK                0      0       5       2        0.0%
;;ABS                  0      0      31       3        0.0%
;;BITBANK0            50      0       0       4        0.0%
;;BITSFR3              0      0       0       4        0.0%
;;SFR3                 0      0       0       4        0.0%
;;BANK0               50     14      23       5       43.8%
;;BITSFR2              0      0       0       5        0.0%
;;SFR2                 0      0       0       5        0.0%
;;BITBANK1            50      0       0       6        0.0%
;;BANK1               50      0       0       7        0.0%
;;BITBANK3            60      0       0       8        0.0%
;;BANK3               60      0       0       9        0.0%
;;BITBANK2            60      0       0      10        0.0%
;;BANK2               60      0       0      11        0.0%
;;DATA                 0      0      36      12        0.0%

	global	_main
psect	maintext,global,class=CODE,delta=2
global __pmaintext
__pmaintext:

;; *************** function _main *****************
;; Defined at:
;;		line 49 in file "D:\pic controller,PIC16F877A\Password Based Circuit Breaker\main.c"
;; Parameters:    Size  Location     Type
;;		None
;; Auto vars:     Size  Location     Type
;;  RequireDelay    2   11[BANK0 ] unsigned int 
;;  RequireDelay    2    9[BANK0 ] unsigned int 
;;  RoutineDelay    1   18[BANK0 ] unsigned char 
;;  RoutineDelay    1   17[BANK0 ] unsigned char 
;;  RequireDelay    2    7[BANK0 ] unsigned int 
;;  RoutineDelay    1   16[BANK0 ] unsigned char 
;;  RequireDelay    2    5[BANK0 ] unsigned int 
;;  RoutineDelay    1   15[BANK0 ] unsigned char 
;;  k               1   19[BANK0 ] unsigned char 
;; Return value:  Size  Location     Type
;;		None               void
;; Registers used:
;;		wreg, fsr0l, fsr0h, status,2, status,0, btemp+1, pclath, cstack
;; Tracked objects:
;;		On entry : 17F/0
;;		On exit  : 0/0
;;		Unchanged: 0/0
;; Data sizes:     COMMON   BANK0   BANK1   BANK3   BANK2
;;      Params:         0       0       0       0       0
;;      Locals:         0      15       0       0       0
;;      Temps:          0       2       0       0       0
;;      Totals:         0      17       0       0       0
;;Total ram usage:       17 bytes
;; Hardware stack levels required when called:    5
;; This function calls:
;;		_eeprom_read
;;		_atoi
;;		_memset
;;		_LCD_Initialize
;;		_Keypad_Initialize
;;		_LCD_Disp
;;		_LCD_Command
;;		_FetchKey
;;		_ChangePassWord
;;		_LCD_Write
;;		_isdigit
;; This function is called by:
;;		Startup code after reset
;; This function uses a non-reentrant model
;;
psect	maintext
	file	"D:\pic controller,PIC16F877A\Password Based Circuit Breaker\main.c"
	line	49
	global	__size_of_main
	__size_of_main	equ	__end_of_main-_main
	
_main:	
	opt	stack 3
; Regs used in _main: [wreg-fsr0h+status,2+status,0+btemp+1+pclath+cstack]
	line	50
	
l8257:	
;main.c: 50: ADCON1 = CMCON = 0x07;
	movlw	(07h)
	bsf	status, 5	;RP0=1, select bank1
	bcf	status, 6	;RP1=0, select bank1
	movwf	(156)^080h	;volatile
	movwf	(159)^080h	;volatile
	line	51
	
l8259:	
;main.c: 51: TRISD &=~ (1 << 1);
	movlw	(0FDh)
	bcf	status, 5	;RP0=0, select bank0
	bcf	status, 6	;RP1=0, select bank0
	movwf	(??_main+0)+0
	movf	(??_main+0)+0,w
	bsf	status, 5	;RP0=1, select bank1
	bcf	status, 6	;RP1=0, select bank1
	andwf	(136)^080h,f	;volatile
	line	52
	
l8261:	
;main.c: 52: PORTD &=~ (1 << 1);
	movlw	(0FDh)
	bcf	status, 5	;RP0=0, select bank0
	bcf	status, 6	;RP1=0, select bank0
	movwf	(??_main+0)+0
	movf	(??_main+0)+0,w
	andwf	(8),f	;volatile
	line	53
	
l8263:	
;main.c: 53: TRISD &=~ (1 << 0);
	movlw	(0FEh)
	movwf	(??_main+0)+0
	movf	(??_main+0)+0,w
	bsf	status, 5	;RP0=1, select bank1
	bcf	status, 6	;RP1=0, select bank1
	andwf	(136)^080h,f	;volatile
	line	54
	
l8265:	
;main.c: 54: PORTD &=~ (1 << 0);
	movlw	(0FEh)
	bcf	status, 5	;RP0=0, select bank0
	bcf	status, 6	;RP1=0, select bank0
	movwf	(??_main+0)+0
	movf	(??_main+0)+0,w
	andwf	(8),f	;volatile
	line	56
	
l8267:	
;main.c: 56: for(char k = 0; k < 4; k++)
	clrf	(main@k)
	movlw	(04h)
	subwf	(main@k),w
	skipc
	goto	u4691
	goto	u4690
u4691:
	goto	l8271
u4690:
	goto	l8283
	
l8269:	
	goto	l8283
	line	57
	
l3066:	
	
l8271:	
;main.c: 57: LocalArray[k] = (eeprom_read(0x00 + k) == 0xFF ?0 :eeprom_read(0x00 + k));
	movf	(main@k),w
	fcall	_eeprom_read
	xorlw	0FFh
	skipnz
	goto	u4701
	goto	u4700
u4701:
	goto	l8275
u4700:
	
l8273:	
	bcf	status, 5	;RP0=0, select bank0
	bcf	status, 6	;RP1=0, select bank0
	movf	(main@k),w
	fcall	_eeprom_read
	bcf	status, 5	;RP0=0, select bank0
	bcf	status, 6	;RP1=0, select bank0
	movwf	(??_main+0)+0
	clrf	(??_main+0)+0+1
	movf	0+(??_main+0)+0,w
	movwf	(_main$3926)
	movf	1+(??_main+0)+0,w
	movwf	(_main$3926+1)
	goto	l8277
	
l3069:	
	
l8275:	
	bcf	status, 5	;RP0=0, select bank0
	bcf	status, 6	;RP1=0, select bank0
	clrf	(_main$3926)
	clrf	(_main$3926+1)
	goto	l8277
	
l3071:	
	
l8277:	
	movf	(_main$3926),w
	movwf	(??_main+0)+0
	movf	(main@k),w
	addlw	_LocalArray&0ffh
	movwf	fsr0
	movf	(??_main+0)+0,w
	bcf	status, 7	;select IRP bank0
	movwf	indf
	line	56
	
l8279:	
	movlw	(01h)
	movwf	(??_main+0)+0
	movf	(??_main+0)+0,w
	addwf	(main@k),f
	
l8281:	
	movlw	(04h)
	subwf	(main@k),w
	skipc
	goto	u4711
	goto	u4710
u4711:
	goto	l8271
u4710:
	goto	l8283
	
l3067:	
	line	58
	
l8283:	
;main.c: 58: LastPassWord = atoi((char*)LocalArray);
	movlw	(_LocalArray)&0ffh
	fcall	_atoi
	movf	(1+(?_atoi)),w
	bcf	status, 5	;RP0=0, select bank0
	bcf	status, 6	;RP1=0, select bank0
	clrf	(_LastPassWord+1)
	addwf	(_LastPassWord+1)
	movf	(0+(?_atoi)),w
	clrf	(_LastPassWord)
	addwf	(_LastPassWord)

	line	60
;main.c: 60: memset(LocalArray, '\0', sizeof(LocalArray));
	movlw	low(0)
	movwf	(?_memset)
	movlw	high(0)
	movwf	((?_memset))+1
	movlw	low(05h)
	movwf	0+(?_memset)+02h
	movlw	high(05h)
	movwf	(0+(?_memset)+02h)+1
	movlw	(_LocalArray)&0ffh
	fcall	_memset
	line	61
	
l8285:	
;main.c: 61: LocalCount = 0;
	bcf	status, 5	;RP0=0, select bank0
	bcf	status, 6	;RP1=0, select bank0
	clrf	(_LocalCount)
	line	63
	
l8287:	
;main.c: 63: LCD_Initialize(); Keypad_Initialize();
	fcall	_LCD_Initialize
	
l8289:	
	fcall	_Keypad_Initialize
	line	64
	
l8291:	
;main.c: 64: LCD_Disp(0x80,"PASWRD BASE POWE");
	movlw	low((STR_3-__stringbase))
	movwf	(?_LCD_Disp)
	movlw	80h
	movwf	(?_LCD_Disp+1)
	movlw	(080h)
	fcall	_LCD_Disp
	line	65
	
l8293:	
;main.c: 65: LCD_Disp(0xC0,"     SYSTEM     ");
	movlw	low((STR_4-__stringbase))
	movwf	(?_LCD_Disp)
	movlw	80h
	movwf	(?_LCD_Disp+1)
	movlw	(0C0h)
	fcall	_LCD_Disp
	line	66
	
l8295:	
;main.c: 66: { unsigned char RoutineDelay; unsigned int RequireDelay = 3000; do { RoutineDelay = 4; do { _delay((unsigned long)((250)*(20000000UL/4000000.0))); } while(--RoutineDelay); } while(--RequireDelay);}; { LCD_Command(0x01); _delay((unsigned long)((20)*(2
	movlw	low(0BB8h)
	bcf	status, 5	;RP0=0, select bank0
	bcf	status, 6	;RP1=0, select bank0
	movwf	(main@RequireDelay)
	movlw	high(0BB8h)
	movwf	((main@RequireDelay))+1
	goto	l8297
	
l3072:	
	
l8297:	
	movlw	(04h)
	movwf	(??_main+0)+0
	movf	(??_main+0)+0,w
	movwf	(main@RoutineDelay)
	goto	l8299
	
l3073:	
	
l8299:	
	opt asmopt_off
movlw	249
movwf	(??_main+0)+0,f
u4877:
	nop2
decfsz	(??_main+0)+0,f
	goto	u4877
	nop2	;nop
	nop2	;nop
opt asmopt_on

	
l8301:	
	movlw	low(01h)
	bcf	status, 5	;RP0=0, select bank0
	bcf	status, 6	;RP1=0, select bank0
	subwf	(main@RoutineDelay),f
	btfss	status,2
	goto	u4721
	goto	u4720
u4721:
	goto	l8299
u4720:
	goto	l8303
	
l3074:	
	
l8303:	
	movlw	low(01h)
	subwf	(main@RequireDelay),f
	movlw	high(01h)
	skipc
	decf	(main@RequireDelay+1),f
	subwf	(main@RequireDelay+1),f
	movf	(((main@RequireDelay+1))),w
	iorwf	(((main@RequireDelay))),w
	skipz
	goto	u4731
	goto	u4730
u4731:
	goto	l8297
u4730:
	goto	l8305
	
l3075:	
	
l8305:	
	movlw	(01h)
	fcall	_LCD_Command
	
l8307:	
	opt asmopt_off
movlw	130
	bcf	status, 5	;RP0=0, select bank0
	bcf	status, 6	;RP1=0, select bank0
movwf	((??_main+0)+0+1),f
	movlw	221
movwf	((??_main+0)+0),f
u4887:
	decfsz	((??_main+0)+0),f
	goto	u4887
	decfsz	((??_main+0)+0+1),f
	goto	u4887
	nop2
opt asmopt_on

	line	68
	
l8309:	
;main.c: 68: LCD_Disp(0x80,"ENTER PASSWORD");
	movlw	low((STR_5-__stringbase))
	movwf	(?_LCD_Disp)
	movlw	80h
	movwf	(?_LCD_Disp+1)
	movlw	(080h)
	fcall	_LCD_Disp
	goto	l8311
	line	70
;main.c: 70: while(1)
	
l3076:	
	line	72
	
l8311:	
;main.c: 71: {
;main.c: 72: LastDetectedKey = FetchKey(&KeyDebounceTime);
	movlw	(_KeyDebounceTime)&0ffh
	fcall	_FetchKey
	bcf	status, 5	;RP0=0, select bank0
	bcf	status, 6	;RP1=0, select bank0
	movwf	(??_main+0)+0
	clrf	(??_main+0)+0+1
	movf	0+(??_main+0)+0,w
	movwf	(_LastDetectedKey)
	movf	1+(??_main+0)+0,w
	movwf	(_LastDetectedKey+1)
	line	74
	
l8313:	
;main.c: 74: if(LastDetectedKey == '#')
	movlw	023h
	xorwf	(_LastDetectedKey),w
	iorwf	(_LastDetectedKey+1),w
	skipz
	goto	u4741
	goto	u4740
u4741:
	goto	l8323
u4740:
	line	76
	
l8315:	
;main.c: 75: {
;main.c: 76: ChangePassWord();
	fcall	_ChangePassWord
	line	77
	
l8317:	
;main.c: 77: { LCD_Command(0x01); _delay((unsigned long)((20)*(20000000UL/4000.0)));};
	movlw	(01h)
	fcall	_LCD_Command
	
l8319:	
	opt asmopt_off
movlw	130
	bcf	status, 5	;RP0=0, select bank0
	bcf	status, 6	;RP1=0, select bank0
movwf	((??_main+0)+0+1),f
	movlw	221
movwf	((??_main+0)+0),f
u4897:
	decfsz	((??_main+0)+0),f
	goto	u4897
	decfsz	((??_main+0)+0+1),f
	goto	u4897
	nop2
opt asmopt_on

	line	78
	
l8321:	
;main.c: 78: LCD_Disp(0x80,"ENTER PASSWORD ");
	movlw	low((STR_6-__stringbase))
	movwf	(?_LCD_Disp)
	movlw	80h
	movwf	(?_LCD_Disp+1)
	movlw	(080h)
	fcall	_LCD_Disp
	goto	l8323
	line	79
	
l3077:	
	line	80
	
l8323:	
;main.c: 79: }
;main.c: 80: if(LastDetectedKey == '*')
	movlw	02Ah
	bcf	status, 5	;RP0=0, select bank0
	bcf	status, 6	;RP1=0, select bank0
	xorwf	(_LastDetectedKey),w
	iorwf	(_LastDetectedKey+1),w
	skipz
	goto	u4751
	goto	u4750
u4751:
	goto	l8341
u4750:
	line	82
	
l8325:	
;main.c: 81: {
;main.c: 82: if(KeyDebounceTime < 300)
	movlw	high(012Ch)
	subwf	(_KeyDebounceTime+1),w
	movlw	low(012Ch)
	skipnz
	subwf	(_KeyDebounceTime),w
	skipnc
	goto	u4761
	goto	u4760
u4761:
	goto	l8335
u4760:
	line	84
	
l8327:	
;main.c: 83: {
;main.c: 84: if(--LocalCount > 4) LocalCount = 0;
	movlw	low(01h)
	subwf	(_LocalCount),f
	movlw	(05h)
	subwf	((_LocalCount)),w
	skipc
	goto	u4771
	goto	u4770
u4771:
	goto	l8331
u4770:
	
l8329:	
	clrf	(_LocalCount)
	goto	l8331
	
l3080:	
	line	85
	
l8331:	
;main.c: 85: LocalArray[LocalCount] = 0;
	movf	(_LocalCount),w
	addlw	_LocalArray&0ffh
	movwf	fsr0
	bcf	status, 7	;select IRP bank0
	clrf	indf
	line	86
	
l8333:	
;main.c: 86: LCD_Write(0xC0 + LocalCount, ' ');
	movlw	(020h)
	movwf	(??_main+0)+0
	movf	(??_main+0)+0,w
	movwf	(?_LCD_Write)
	movf	(_LocalCount),w
	addlw	0C0h
	fcall	_LCD_Write
	line	87
;main.c: 87: }
	goto	l8341
	line	88
	
l3079:	
	line	90
	
l8335:	
;main.c: 88: else
;main.c: 89: {
;main.c: 90: LCD_Disp(0xC0,"                ");
	movlw	low((STR_7-__stringbase))
	movwf	(?_LCD_Disp)
	movlw	80h
	movwf	(?_LCD_Disp+1)
	movlw	(0C0h)
	fcall	_LCD_Disp
	line	91
	
l8337:	
;main.c: 91: memset(LocalArray, '\0', sizeof(LocalArray));
	movlw	low(0)
	movwf	(?_memset)
	movlw	high(0)
	movwf	((?_memset))+1
	movlw	low(05h)
	movwf	0+(?_memset)+02h
	movlw	high(05h)
	movwf	(0+(?_memset)+02h)+1
	movlw	(_LocalArray)&0ffh
	fcall	_memset
	line	92
	
l8339:	
;main.c: 92: LocalCount = 0;
	bcf	status, 5	;RP0=0, select bank0
	bcf	status, 6	;RP1=0, select bank0
	clrf	(_LocalCount)
	goto	l8341
	line	93
	
l3081:	
	goto	l8341
	line	94
	
l3078:	
	line	95
	
l8341:	
;main.c: 93: }
;main.c: 94: }
;main.c: 95: if(isdigit(LastDetectedKey))
	bcf	status, 5	;RP0=0, select bank0
	bcf	status, 6	;RP1=0, select bank0
	movf	(_LastDetectedKey),w
	fcall	_isdigit
	btfss	status,0
	goto	u4781
	goto	u4780
u4781:
	goto	l8349
u4780:
	line	97
	
l8343:	
;main.c: 96: {
;main.c: 97: LocalArray[LocalCount] = LastDetectedKey;
	bcf	status, 5	;RP0=0, select bank0
	bcf	status, 6	;RP1=0, select bank0
	movf	(_LastDetectedKey),w
	movwf	(??_main+0)+0
	movf	(_LocalCount),w
	addlw	_LocalArray&0ffh
	movwf	fsr0
	movf	(??_main+0)+0,w
	bcf	status, 7	;select IRP bank0
	movwf	indf
	line	98
	
l8345:	
;main.c: 98: LCD_Write(0xC0 + LocalCount, LocalArray[LocalCount]);
	movf	(_LocalCount),w
	addlw	_LocalArray&0ffh
	movwf	fsr0
	movf	indf,w
	movwf	(??_main+0)+0
	movf	(??_main+0)+0,w
	movwf	(?_LCD_Write)
	movf	(_LocalCount),w
	addlw	0C0h
	fcall	_LCD_Write
	line	99
	
l8347:	
;main.c: 99: LocalCount++;
	movlw	(01h)
	bcf	status, 5	;RP0=0, select bank0
	bcf	status, 6	;RP1=0, select bank0
	movwf	(??_main+0)+0
	movf	(??_main+0)+0,w
	addwf	(_LocalCount),f
	goto	l8349
	line	100
	
l3082:	
	line	101
	
l8349:	
;main.c: 100: }
;main.c: 101: if(LocalCount > 3)
	movlw	(04h)
	bcf	status, 5	;RP0=0, select bank0
	bcf	status, 6	;RP1=0, select bank0
	subwf	(_LocalCount),w
	skipc
	goto	u4791
	goto	u4790
u4791:
	goto	l8311
u4790:
	line	103
	
l8351:	
;main.c: 102: {
;main.c: 103: DetectedPassWord = atoi((char*)LocalArray);
	movlw	(_LocalArray)&0ffh
	fcall	_atoi
	movf	(1+(?_atoi)),w
	bcf	status, 5	;RP0=0, select bank0
	bcf	status, 6	;RP1=0, select bank0
	clrf	(_DetectedPassWord+1)
	addwf	(_DetectedPassWord+1)
	movf	(0+(?_atoi)),w
	clrf	(_DetectedPassWord)
	addwf	(_DetectedPassWord)

	line	104
	
l8353:	
;main.c: 104: if(LastPassWord == DetectedPassWord)
	movf	(_DetectedPassWord+1),w
	xorwf	(_LastPassWord+1),w
	skipz
	goto	u4805
	movf	(_DetectedPassWord),w
	xorwf	(_LastPassWord),w
u4805:

	skipz
	goto	u4801
	goto	u4800
u4801:
	goto	l8375
u4800:
	line	106
	
l8355:	
;main.c: 105: {
;main.c: 106: LCD_Disp(0xC0,"PASSWORD MATCHED");
	movlw	low((STR_8-__stringbase))
	movwf	(?_LCD_Disp)
	movlw	80h
	movwf	(?_LCD_Disp+1)
	movlw	(0C0h)
	fcall	_LCD_Disp
	line	107
	
l8357:	
;main.c: 107: PORTD ^= (1 << 1); { unsigned char RoutineDelay; unsigned int RequireDelay = 1000; do { RoutineDelay = 4; do { _delay((unsigned long)((250)*(20000000UL/4000000.0))); } while(--RoutineDelay); } while(--RequireDelay);};
	movlw	(02h)
	bcf	status, 5	;RP0=0, select bank0
	bcf	status, 6	;RP1=0, select bank0
	movwf	(??_main+0)+0
	movf	(??_main+0)+0,w
	xorwf	(8),f	;volatile
	
l8359:	
	movlw	low(03E8h)
	movwf	(main@RequireDelay_3936)
	movlw	high(03E8h)
	movwf	((main@RequireDelay_3936))+1
	goto	l8361
	
l3085:	
	
l8361:	
	movlw	(04h)
	movwf	(??_main+0)+0
	movf	(??_main+0)+0,w
	movwf	(main@RoutineDelay_3935)
	goto	l8363
	
l3086:	
	
l8363:	
	opt asmopt_off
movlw	249
movwf	(??_main+0)+0,f
u4907:
	nop2
decfsz	(??_main+0)+0,f
	goto	u4907
	nop2	;nop
	nop2	;nop
opt asmopt_on

	
l8365:	
	movlw	low(01h)
	bcf	status, 5	;RP0=0, select bank0
	bcf	status, 6	;RP1=0, select bank0
	subwf	(main@RoutineDelay_3935),f
	btfss	status,2
	goto	u4811
	goto	u4810
u4811:
	goto	l8363
u4810:
	goto	l8367
	
l3087:	
	
l8367:	
	movlw	low(01h)
	subwf	(main@RequireDelay_3936),f
	movlw	high(01h)
	skipc
	decf	(main@RequireDelay_3936+1),f
	subwf	(main@RequireDelay_3936+1),f
	movf	(((main@RequireDelay_3936+1))),w
	iorwf	(((main@RequireDelay_3936))),w
	skipz
	goto	u4821
	goto	u4820
u4821:
	goto	l8361
u4820:
	goto	l8369
	
l3088:	
	line	108
	
l8369:	
;main.c: 108: memset(LocalArray, '\0', sizeof(LocalArray));
	movlw	low(0)
	movwf	(?_memset)
	movlw	high(0)
	movwf	((?_memset))+1
	movlw	low(05h)
	movwf	0+(?_memset)+02h
	movlw	high(05h)
	movwf	(0+(?_memset)+02h)+1
	movlw	(_LocalArray)&0ffh
	fcall	_memset
	line	109
	
l8371:	
;main.c: 109: LocalCount = 0; LCD_Disp(0xC0,"                ");
	bcf	status, 5	;RP0=0, select bank0
	bcf	status, 6	;RP1=0, select bank0
	clrf	(_LocalCount)
	
l8373:	
	movlw	low((STR_9-__stringbase))
	movwf	(?_LCD_Disp)
	movlw	80h
	movwf	(?_LCD_Disp+1)
	movlw	(0C0h)
	fcall	_LCD_Disp
	line	110
;main.c: 110: }
	goto	l8311
	line	111
	
l3084:	
	line	113
	
l8375:	
;main.c: 111: else
;main.c: 112: {
;main.c: 113: LCD_Disp(0xC0,"PASSWORD NT MATC");
	movlw	low((STR_10-__stringbase))
	movwf	(?_LCD_Disp)
	movlw	80h
	movwf	(?_LCD_Disp+1)
	movlw	(0C0h)
	fcall	_LCD_Disp
	line	114
	
l8377:	
;main.c: 114: PORTD |= (1 << 0);
	bcf	status, 5	;RP0=0, select bank0
	bcf	status, 6	;RP1=0, select bank0
	bsf	(8)+(0/8),(0)&7	;volatile
	line	115
	
l8379:	
;main.c: 115: { unsigned char RoutineDelay; unsigned int RequireDelay = 500; do { RoutineDelay = 4; do { _delay((unsigned long)((250)*(20000000UL/4000000.0))); } while(--RoutineDelay); } while(--RequireDelay);}; { unsigned char RoutineDelay; unsigned int RequireDe
	movlw	low(01F4h)
	movwf	(main@RequireDelay_3940)
	movlw	high(01F4h)
	movwf	((main@RequireDelay_3940))+1
	goto	l8381
	
l3090:	
	
l8381:	
	movlw	(04h)
	movwf	(??_main+0)+0
	movf	(??_main+0)+0,w
	movwf	(main@RoutineDelay_3939)
	goto	l8383
	
l3091:	
	
l8383:	
	opt asmopt_off
movlw	249
movwf	(??_main+0)+0,f
u4917:
	nop2
decfsz	(??_main+0)+0,f
	goto	u4917
	nop2	;nop
	nop2	;nop
opt asmopt_on

	
l8385:	
	movlw	low(01h)
	bcf	status, 5	;RP0=0, select bank0
	bcf	status, 6	;RP1=0, select bank0
	subwf	(main@RoutineDelay_3939),f
	btfss	status,2
	goto	u4831
	goto	u4830
u4831:
	goto	l8383
u4830:
	goto	l8387
	
l3092:	
	
l8387:	
	movlw	low(01h)
	subwf	(main@RequireDelay_3940),f
	movlw	high(01h)
	skipc
	decf	(main@RequireDelay_3940+1),f
	subwf	(main@RequireDelay_3940+1),f
	movf	(((main@RequireDelay_3940+1))),w
	iorwf	(((main@RequireDelay_3940))),w
	skipz
	goto	u4841
	goto	u4840
u4841:
	goto	l8381
u4840:
	goto	l8389
	
l3093:	
	
l8389:	
	movlw	low(01F4h)
	movwf	(main@RequireDelay_3942)
	movlw	high(01F4h)
	movwf	((main@RequireDelay_3942))+1
	
l3094:	
	movlw	(04h)
	movwf	(??_main+0)+0
	movf	(??_main+0)+0,w
	movwf	(main@RoutineDelay_3941)
	
l3095:	
	opt asmopt_off
movlw	249
movwf	(??_main+0)+0,f
u4927:
	nop2
decfsz	(??_main+0)+0,f
	goto	u4927
	nop2	;nop
	nop2	;nop
opt asmopt_on

	
l8391:	
	movlw	low(01h)
	bcf	status, 5	;RP0=0, select bank0
	bcf	status, 6	;RP1=0, select bank0
	subwf	(main@RoutineDelay_3941),f
	btfss	status,2
	goto	u4851
	goto	u4850
u4851:
	goto	l3095
u4850:
	goto	l8393
	
l3096:	
	
l8393:	
	movlw	low(01h)
	subwf	(main@RequireDelay_3942),f
	movlw	high(01h)
	skipc
	decf	(main@RequireDelay_3942+1),f
	subwf	(main@RequireDelay_3942+1),f
	movf	(((main@RequireDelay_3942+1))),w
	iorwf	(((main@RequireDelay_3942))),w
	skipz
	goto	u4861
	goto	u4860
u4861:
	goto	l3094
u4860:
	goto	l8395
	
l3097:	
	line	116
	
l8395:	
;main.c: 116: PORTD &=~(1 << 0);
	movlw	(0FEh)
	movwf	(??_main+0)+0
	movf	(??_main+0)+0,w
	andwf	(8),f	;volatile
	line	117
	
l8397:	
;main.c: 117: memset(LocalArray, '\0', sizeof(LocalArray));
	movlw	low(0)
	movwf	(?_memset)
	movlw	high(0)
	movwf	((?_memset))+1
	movlw	low(05h)
	movwf	0+(?_memset)+02h
	movlw	high(05h)
	movwf	(0+(?_memset)+02h)+1
	movlw	(_LocalArray)&0ffh
	fcall	_memset
	line	118
	
l8399:	
;main.c: 118: LocalCount = 0; LCD_Disp(0xC0,"                ");
	bcf	status, 5	;RP0=0, select bank0
	bcf	status, 6	;RP1=0, select bank0
	clrf	(_LocalCount)
	
l8401:	
	movlw	low((STR_11-__stringbase))
	movwf	(?_LCD_Disp)
	movlw	80h
	movwf	(?_LCD_Disp+1)
	movlw	(0C0h)
	fcall	_LCD_Disp
	goto	l8311
	line	119
	
l3089:	
	goto	l8311
	line	120
	
l3083:	
	goto	l8311
	line	121
	
l3098:	
	line	70
	goto	l8311
	
l3099:	
	line	122
	
l3100:	
	global	start
	ljmp	start
	opt stack 0
GLOBAL	__end_of_main
	__end_of_main:
;; =============== function _main ends ============

	signat	_main,88
	global	_ChangePassWord
psect	text418,local,class=CODE,delta=2
global __ptext418
__ptext418:

;; *************** function _ChangePassWord *****************
;; Defined at:
;;		line 125 in file "D:\pic controller,PIC16F877A\Password Based Circuit Breaker\main.c"
;; Parameters:    Size  Location     Type
;;		None
;; Auto vars:     Size  Location     Type
;;  k               1    2[BANK0 ] unsigned char 
;; Return value:  Size  Location     Type
;;		None               void
;; Registers used:
;;		wreg, fsr0l, fsr0h, status,2, status,0, btemp+1, pclath, cstack
;; Tracked objects:
;;		On entry : 0/0
;;		On exit  : 0/0
;;		Unchanged: 0/0
;; Data sizes:     COMMON   BANK0   BANK1   BANK3   BANK2
;;      Params:         0       0       0       0       0
;;      Locals:         0       1       0       0       0
;;      Temps:          0       2       0       0       0
;;      Totals:         0       3       0       0       0
;;Total ram usage:        3 bytes
;; Hardware stack levels used:    1
;; Hardware stack levels required when called:    4
;; This function calls:
;;		_LCD_Command
;;		_memset
;;		_LCD_Disp
;;		_FetchKey
;;		_isdigit
;;		_LCD_Write
;;		_atoi
;;		_eeprom_write
;; This function is called by:
;;		_main
;; This function uses a non-reentrant model
;;
psect	text418
	file	"D:\pic controller,PIC16F877A\Password Based Circuit Breaker\main.c"
	line	125
	global	__size_of_ChangePassWord
	__size_of_ChangePassWord	equ	__end_of_ChangePassWord-_ChangePassWord
	
_ChangePassWord:	
	opt	stack 3
; Regs used in _ChangePassWord: [wreg-fsr0h+status,2+status,0+btemp+1+pclath+cstack]
	line	126
	
l8199:	
;main.c: 126: { LCD_Command(0x01); _delay((unsigned long)((20)*(20000000UL/4000.0)));}; LCD_Command(0x0E);
	movlw	(01h)
	fcall	_LCD_Command
	
l8201:	
	opt asmopt_off
movlw	130
	bcf	status, 5	;RP0=0, select bank0
	bcf	status, 6	;RP1=0, select bank0
movwf	((??_ChangePassWord+0)+0+1),f
	movlw	221
movwf	((??_ChangePassWord+0)+0),f
u4937:
	decfsz	((??_ChangePassWord+0)+0),f
	goto	u4937
	decfsz	((??_ChangePassWord+0)+0+1),f
	goto	u4937
	nop2
opt asmopt_on

	
l8203:	
	movlw	(0Eh)
	fcall	_LCD_Command
	line	127
	
l8205:	
;main.c: 127: memset(LocalArray, '\0', sizeof(LocalArray));
	movlw	low(0)
	movwf	(?_memset)
	movlw	high(0)
	movwf	((?_memset))+1
	movlw	low(05h)
	movwf	0+(?_memset)+02h
	movlw	high(05h)
	movwf	(0+(?_memset)+02h)+1
	movlw	(_LocalArray)&0ffh
	fcall	_memset
	line	128
	
l8207:	
;main.c: 128: LocalCount = 0; LCD_Disp(0x80,"ENTER OLD PASWRD");
	bcf	status, 5	;RP0=0, select bank0
	bcf	status, 6	;RP1=0, select bank0
	clrf	(_LocalCount)
	
l8209:	
	movlw	low((STR_12-__stringbase))
	movwf	(?_LCD_Disp)
	movlw	80h
	movwf	(?_LCD_Disp+1)
	movlw	(080h)
	fcall	_LCD_Disp
	goto	l8211
	line	130
;main.c: 130: do
	
l3103:	
	line	132
	
l8211:	
;main.c: 131: {
;main.c: 132: LastDetectedKey = FetchKey(&KeyDebounceTime);
	movlw	(_KeyDebounceTime)&0ffh
	fcall	_FetchKey
	bcf	status, 5	;RP0=0, select bank0
	bcf	status, 6	;RP1=0, select bank0
	movwf	(??_ChangePassWord+0)+0
	clrf	(??_ChangePassWord+0)+0+1
	movf	0+(??_ChangePassWord+0)+0,w
	movwf	(_LastDetectedKey)
	movf	1+(??_ChangePassWord+0)+0,w
	movwf	(_LastDetectedKey+1)
	line	133
	
l8213:	
;main.c: 133: if(isdigit(LastDetectedKey))
	movf	(_LastDetectedKey),w
	fcall	_isdigit
	btfss	status,0
	goto	u4611
	goto	u4610
u4611:
	goto	l8221
u4610:
	line	135
	
l8215:	
;main.c: 134: {
;main.c: 135: LocalArray[LocalCount] = LastDetectedKey;
	bcf	status, 5	;RP0=0, select bank0
	bcf	status, 6	;RP1=0, select bank0
	movf	(_LastDetectedKey),w
	movwf	(??_ChangePassWord+0)+0
	movf	(_LocalCount),w
	addlw	_LocalArray&0ffh
	movwf	fsr0
	movf	(??_ChangePassWord+0)+0,w
	bcf	status, 7	;select IRP bank0
	movwf	indf
	line	136
	
l8217:	
;main.c: 136: LCD_Write(0xC0 + LocalCount, LastDetectedKey);
	movf	(_LastDetectedKey),w
	movwf	(??_ChangePassWord+0)+0
	movf	(??_ChangePassWord+0)+0,w
	movwf	(?_LCD_Write)
	movf	(_LocalCount),w
	addlw	0C0h
	fcall	_LCD_Write
	line	137
	
l8219:	
;main.c: 137: LocalCount++;
	movlw	(01h)
	bcf	status, 5	;RP0=0, select bank0
	bcf	status, 6	;RP1=0, select bank0
	movwf	(??_ChangePassWord+0)+0
	movf	(??_ChangePassWord+0)+0,w
	addwf	(_LocalCount),f
	goto	l8221
	line	138
	
l3104:	
	line	140
	
l8221:	
;main.c: 138: }
;main.c: 139: }
;main.c: 140: while(LocalCount != 4); LocalCount = 0;
	bcf	status, 5	;RP0=0, select bank0
	bcf	status, 6	;RP1=0, select bank0
	movf	(_LocalCount),w
	xorlw	04h
	skipz
	goto	u4621
	goto	u4620
u4621:
	goto	l8211
u4620:
	
l3105:	
	clrf	(_LocalCount)
	line	141
	
l8223:	
;main.c: 141: DetectedPassWord = atoi((char*)LocalArray);
	movlw	(_LocalArray)&0ffh
	fcall	_atoi
	movf	(1+(?_atoi)),w
	bcf	status, 5	;RP0=0, select bank0
	bcf	status, 6	;RP1=0, select bank0
	clrf	(_DetectedPassWord+1)
	addwf	(_DetectedPassWord+1)
	movf	(0+(?_atoi)),w
	clrf	(_DetectedPassWord)
	addwf	(_DetectedPassWord)

	line	142
;main.c: 142: memset(LocalArray, '\0', sizeof(LocalArray) - 1);
	movlw	low(0)
	movwf	(?_memset)
	movlw	high(0)
	movwf	((?_memset))+1
	movlw	low(04h)
	movwf	0+(?_memset)+02h
	movlw	high(04h)
	movwf	(0+(?_memset)+02h)+1
	movlw	(_LocalArray)&0ffh
	fcall	_memset
	line	144
	
l8225:	
;main.c: 144: if(DetectedPassWord == LastPassWord || DetectedPassWord == 2205)
	bcf	status, 5	;RP0=0, select bank0
	bcf	status, 6	;RP1=0, select bank0
	movf	(_LastPassWord+1),w
	xorwf	(_DetectedPassWord+1),w
	skipz
	goto	u4635
	movf	(_LastPassWord),w
	xorwf	(_DetectedPassWord),w
u4635:

	skipnz
	goto	u4631
	goto	u4630
u4631:
	goto	l8229
u4630:
	
l8227:	
	movlw	high(089Dh)
	xorwf	(_DetectedPassWord+1),w
	skipz
	goto	u4645
	movlw	low(089Dh)
	xorwf	(_DetectedPassWord),w
u4645:

	skipz
	goto	u4641
	goto	u4640
u4641:
	goto	l3114
u4640:
	goto	l8229
	
l3108:	
	line	146
	
l8229:	
;main.c: 145: {
;main.c: 146: LCD_Disp(0x80,"ENTER NEW PASWRD");
	movlw	low((STR_13-__stringbase))
	movwf	(?_LCD_Disp)
	movlw	80h
	movwf	(?_LCD_Disp+1)
	movlw	(080h)
	fcall	_LCD_Disp
	line	147
;main.c: 147: LCD_Disp(0xC0,"                ");
	movlw	low((STR_14-__stringbase))
	movwf	(?_LCD_Disp)
	movlw	80h
	movwf	(?_LCD_Disp+1)
	movlw	(0C0h)
	fcall	_LCD_Disp
	goto	l8231
	line	148
;main.c: 148: do
	
l3109:	
	line	150
	
l8231:	
;main.c: 149: {
;main.c: 150: LastDetectedKey = FetchKey(&KeyDebounceTime);
	movlw	(_KeyDebounceTime)&0ffh
	fcall	_FetchKey
	bcf	status, 5	;RP0=0, select bank0
	bcf	status, 6	;RP1=0, select bank0
	movwf	(??_ChangePassWord+0)+0
	clrf	(??_ChangePassWord+0)+0+1
	movf	0+(??_ChangePassWord+0)+0,w
	movwf	(_LastDetectedKey)
	movf	1+(??_ChangePassWord+0)+0,w
	movwf	(_LastDetectedKey+1)
	line	151
	
l8233:	
;main.c: 151: if(isdigit(LastDetectedKey))
	movf	(_LastDetectedKey),w
	fcall	_isdigit
	btfss	status,0
	goto	u4651
	goto	u4650
u4651:
	goto	l8241
u4650:
	line	153
	
l8235:	
;main.c: 152: {
;main.c: 153: LocalArray[LocalCount] = LastDetectedKey;
	bcf	status, 5	;RP0=0, select bank0
	bcf	status, 6	;RP1=0, select bank0
	movf	(_LastDetectedKey),w
	movwf	(??_ChangePassWord+0)+0
	movf	(_LocalCount),w
	addlw	_LocalArray&0ffh
	movwf	fsr0
	movf	(??_ChangePassWord+0)+0,w
	bcf	status, 7	;select IRP bank0
	movwf	indf
	line	154
	
l8237:	
;main.c: 154: LCD_Write(0xC0 + LocalCount, LastDetectedKey);
	movf	(_LastDetectedKey),w
	movwf	(??_ChangePassWord+0)+0
	movf	(??_ChangePassWord+0)+0,w
	movwf	(?_LCD_Write)
	movf	(_LocalCount),w
	addlw	0C0h
	fcall	_LCD_Write
	line	155
	
l8239:	
;main.c: 155: LocalCount++;
	movlw	(01h)
	bcf	status, 5	;RP0=0, select bank0
	bcf	status, 6	;RP1=0, select bank0
	movwf	(??_ChangePassWord+0)+0
	movf	(??_ChangePassWord+0)+0,w
	addwf	(_LocalCount),f
	goto	l8241
	line	156
	
l3110:	
	line	158
	
l8241:	
;main.c: 156: }
;main.c: 157: }
;main.c: 158: while(LocalCount != 4); LocalCount = 0;
	bcf	status, 5	;RP0=0, select bank0
	bcf	status, 6	;RP1=0, select bank0
	movf	(_LocalCount),w
	xorlw	04h
	skipz
	goto	u4661
	goto	u4660
u4661:
	goto	l8231
u4660:
	
l3111:	
	clrf	(_LocalCount)
	line	160
;main.c: 160: for(char k = 0; k < 4; k++)
	clrf	(ChangePassWord@k)
	
l8243:	
	movlw	(04h)
	subwf	(ChangePassWord@k),w
	skipc
	goto	u4671
	goto	u4670
u4671:
	goto	l8247
u4670:
	goto	l8253
	
l8245:	
	goto	l8253
	line	161
	
l3112:	
	
l8247:	
;main.c: 161: eeprom_write(0x00 + k, LocalArray[k]);
	movf	(ChangePassWord@k),w
	addlw	_LocalArray&0ffh
	movwf	fsr0
	bcf	status, 7	;select IRP bank0
	movf	indf,w
	movwf	(??_ChangePassWord+0)+0
	movf	(??_ChangePassWord+0)+0,w
	movwf	(?_eeprom_write)
	movf	(ChangePassWord@k),w
	fcall	_eeprom_write
	line	160
	
l8249:	
	movlw	(01h)
	bcf	status, 5	;RP0=0, select bank0
	bcf	status, 6	;RP1=0, select bank0
	movwf	(??_ChangePassWord+0)+0
	movf	(??_ChangePassWord+0)+0,w
	addwf	(ChangePassWord@k),f
	
l8251:	
	movlw	(04h)
	subwf	(ChangePassWord@k),w
	skipc
	goto	u4681
	goto	u4680
u4681:
	goto	l8247
u4680:
	goto	l8253
	
l3113:	
	line	162
	
l8253:	
;main.c: 162: LastPassWord = atoi((char*)LocalArray);
	movlw	(_LocalArray)&0ffh
	fcall	_atoi
	movf	(1+(?_atoi)),w
	bcf	status, 5	;RP0=0, select bank0
	bcf	status, 6	;RP1=0, select bank0
	clrf	(_LastPassWord+1)
	addwf	(_LastPassWord+1)
	movf	(0+(?_atoi)),w
	clrf	(_LastPassWord)
	addwf	(_LastPassWord)

	line	163
;main.c: 163: memset(LocalArray, '\0', sizeof(LocalArray));
	movlw	low(0)
	movwf	(?_memset)
	movlw	high(0)
	movwf	((?_memset))+1
	movlw	low(05h)
	movwf	0+(?_memset)+02h
	movlw	high(05h)
	movwf	(0+(?_memset)+02h)+1
	movlw	(_LocalArray)&0ffh
	fcall	_memset
	line	164
	
l8255:	
;main.c: 164: LCD_Disp(0xC0,"                ");
	movlw	low((STR_15-__stringbase))
	movwf	(?_LCD_Disp)
	movlw	80h
	movwf	(?_LCD_Disp+1)
	movlw	(0C0h)
	fcall	_LCD_Disp
	goto	l3114
	line	165
	
l3106:	
	line	166
	
l3114:	
	return
	opt stack 0
GLOBAL	__end_of_ChangePassWord
	__end_of_ChangePassWord:
;; =============== function _ChangePassWord ends ============

	signat	_ChangePassWord,88
	global	_LCD_Disp
psect	text419,local,class=CODE,delta=2
global __ptext419
__ptext419:

;; *************** function _LCD_Disp *****************
;; Defined at:
;;		line 56 in file "D:\pic controller,PIC16F877A\Password Based Circuit Breaker\lcd.c"
;; Parameters:    Size  Location     Type
;;  DisplayAddre    1    wreg     unsigned char 
;;  DisplayData     2    7[COMMON] PTR const unsigned char 
;;		 -> STR_15(17), STR_14(17), STR_13(17), STR_12(17), 
;;		 -> STR_11(17), STR_10(17), STR_9(17), STR_8(17), 
;;		 -> STR_7(17), STR_6(16), STR_5(15), STR_4(17), 
;;		 -> STR_3(17), LCD_Float@LocalArray(10), LCD_Decimal@LocalArray(10), STR_2(17), 
;;		 -> STR_1(17), 
;; Auto vars:     Size  Location     Type
;;  DisplayAddre    1   10[COMMON] unsigned char 
;; Return value:  Size  Location     Type
;;		None               void
;; Registers used:
;;		wreg, fsr0l, fsr0h, status,2, status,0, btemp+1, pclath, cstack
;; Tracked objects:
;;		On entry : 0/0
;;		On exit  : 0/0
;;		Unchanged: 0/0
;; Data sizes:     COMMON   BANK0   BANK1   BANK3   BANK2
;;      Params:         2       0       0       0       0
;;      Locals:         1       0       0       0       0
;;      Temps:          1       0       0       0       0
;;      Totals:         4       0       0       0       0
;;Total ram usage:        4 bytes
;; Hardware stack levels used:    1
;; Hardware stack levels required when called:    3
;; This function calls:
;;		_LCD_Write
;; This function is called by:
;;		_main
;;		_ChangePassWord
;;		_RTC_Keypad
;;		_LCD_Decimal
;;		_LCD_Float
;; This function uses a non-reentrant model
;;
psect	text419
	file	"D:\pic controller,PIC16F877A\Password Based Circuit Breaker\lcd.c"
	line	56
	global	__size_of_LCD_Disp
	__size_of_LCD_Disp	equ	__end_of_LCD_Disp-_LCD_Disp
	
_LCD_Disp:	
	opt	stack 3
; Regs used in _LCD_Disp: [wreg-fsr0h+status,2+status,0+btemp+1+pclath+cstack]
;LCD_Disp@DisplayAddress stored from wreg
	movwf	(LCD_Disp@DisplayAddress)
	line	57
	
l8189:	
;lcd.c: 57: while(*DisplayData) LCD_Write(DisplayAddress++, *DisplayData++);
	goto	l8197
	
l2306:	
	
l8191:	
	movf	(LCD_Disp@DisplayData+1),w
	bcf	status, 5	;RP0=0, select bank0
	bcf	status, 6	;RP1=0, select bank0
	movwf	btemp+1
	movf	(LCD_Disp@DisplayData),w
	movwf	fsr0
	fcall	stringtab
	movwf	(??_LCD_Disp+0)+0
	movf	(??_LCD_Disp+0)+0,w
	movwf	(?_LCD_Write)
	movf	(LCD_Disp@DisplayAddress),w
	fcall	_LCD_Write
	
l8193:	
	movlw	low(01h)
	addwf	(LCD_Disp@DisplayData),f
	skipnc
	incf	(LCD_Disp@DisplayData+1),f
	movlw	high(01h)
	addwf	(LCD_Disp@DisplayData+1),f
	
l8195:	
	movlw	(01h)
	movwf	(??_LCD_Disp+0)+0
	movf	(??_LCD_Disp+0)+0,w
	addwf	(LCD_Disp@DisplayAddress),f
	goto	l8197
	
l2305:	
	
l8197:	
	movf	(LCD_Disp@DisplayData+1),w
	bcf	status, 5	;RP0=0, select bank0
	bcf	status, 6	;RP1=0, select bank0
	movwf	btemp+1
	movf	(LCD_Disp@DisplayData),w
	movwf	fsr0
	fcall	stringtab
	iorlw	0
	skipz
	goto	u4601
	goto	u4600
u4601:
	goto	l8191
u4600:
	goto	l2308
	
l2307:	
	line	58
	
l2308:	
	return
	opt stack 0
GLOBAL	__end_of_LCD_Disp
	__end_of_LCD_Disp:
;; =============== function _LCD_Disp ends ============

	signat	_LCD_Disp,8312
	global	_LCD_Initialize
psect	text420,local,class=CODE,delta=2
global __ptext420
__ptext420:

;; *************** function _LCD_Initialize *****************
;; Defined at:
;;		line 14 in file "D:\pic controller,PIC16F877A\Password Based Circuit Breaker\lcd.c"
;; Parameters:    Size  Location     Type
;;		None
;; Auto vars:     Size  Location     Type
;;		None
;; Return value:  Size  Location     Type
;;		None               void
;; Registers used:
;;		wreg, status,2, status,0, pclath, cstack
;; Tracked objects:
;;		On entry : 0/0
;;		On exit  : 0/0
;;		Unchanged: 0/0
;; Data sizes:     COMMON   BANK0   BANK1   BANK3   BANK2
;;      Params:         0       0       0       0       0
;;      Locals:         0       0       0       0       0
;;      Temps:          2       0       0       0       0
;;      Totals:         2       0       0       0       0
;;Total ram usage:        2 bytes
;; Hardware stack levels used:    1
;; Hardware stack levels required when called:    2
;; This function calls:
;;		_LCD_Command
;; This function is called by:
;;		_main
;; This function uses a non-reentrant model
;;
psect	text420
	file	"D:\pic controller,PIC16F877A\Password Based Circuit Breaker\lcd.c"
	line	14
	global	__size_of_LCD_Initialize
	__size_of_LCD_Initialize	equ	__end_of_LCD_Initialize-_LCD_Initialize
	
_LCD_Initialize:	
	opt	stack 5
; Regs used in _LCD_Initialize: [wreg+status,2+status,0+pclath+cstack]
	line	15
	
l8145:	
;lcd.c: 15: TRISB &=~ ((1 << 3) | (1 << 2) | (1 << 1) | (1 << 0));
	movlw	(0F0h)
	movwf	(??_LCD_Initialize+0)+0
	movf	(??_LCD_Initialize+0)+0,w
	bsf	status, 5	;RP0=1, select bank1
	bcf	status, 6	;RP1=0, select bank1
	andwf	(134)^080h,f	;volatile
	line	16
;lcd.c: 16: TRISB &=~ ((1 << 5) | (1 << 4));
	movlw	(0CFh)
	movwf	(??_LCD_Initialize+0)+0
	movf	(??_LCD_Initialize+0)+0,w
	andwf	(134)^080h,f	;volatile
	line	18
	
l8147:	
;lcd.c: 18: _delay((unsigned long)((4.5)*(20000000UL/4000.0)));
	opt asmopt_off
movlw	30
movwf	((??_LCD_Initialize+0)+0+1),f
	movlw	55
movwf	((??_LCD_Initialize+0)+0),f
u4947:
	decfsz	((??_LCD_Initialize+0)+0),f
	goto	u4947
	decfsz	((??_LCD_Initialize+0)+0+1),f
	goto	u4947
opt asmopt_on

	line	19
	
l8149:	
;lcd.c: 19: LCD_Command(0x03);
	movlw	(03h)
	fcall	_LCD_Command
	line	20
	
l8151:	
;lcd.c: 20: _delay((unsigned long)((4.5)*(20000000UL/4000.0)));
	opt asmopt_off
movlw	30
movwf	((??_LCD_Initialize+0)+0+1),f
	movlw	55
movwf	((??_LCD_Initialize+0)+0),f
u4957:
	decfsz	((??_LCD_Initialize+0)+0),f
	goto	u4957
	decfsz	((??_LCD_Initialize+0)+0+1),f
	goto	u4957
opt asmopt_on

	line	21
	
l8153:	
;lcd.c: 21: LCD_Command(0x03);
	movlw	(03h)
	fcall	_LCD_Command
	line	22
	
l8155:	
;lcd.c: 22: _delay((unsigned long)((4.5)*(20000000UL/4000.0)));
	opt asmopt_off
movlw	30
movwf	((??_LCD_Initialize+0)+0+1),f
	movlw	55
movwf	((??_LCD_Initialize+0)+0),f
u4967:
	decfsz	((??_LCD_Initialize+0)+0),f
	goto	u4967
	decfsz	((??_LCD_Initialize+0)+0+1),f
	goto	u4967
opt asmopt_on

	line	23
	
l8157:	
;lcd.c: 23: LCD_Command(0x03);
	movlw	(03h)
	fcall	_LCD_Command
	line	24
	
l8159:	
;lcd.c: 24: _delay((unsigned long)((150)*(20000000UL/4000000.0)));
	opt asmopt_off
movlw	249
movwf	(??_LCD_Initialize+0)+0,f
u4977:
decfsz	(??_LCD_Initialize+0)+0,f
	goto	u4977
	nop2	;nop
opt asmopt_on

	line	25
	
l8161:	
;lcd.c: 25: LCD_Command(0x02);
	movlw	(02h)
	fcall	_LCD_Command
	line	26
	
l8163:	
;lcd.c: 26: _delay((unsigned long)((150)*(20000000UL/4000000.0)));
	opt asmopt_off
movlw	249
movwf	(??_LCD_Initialize+0)+0,f
u4987:
decfsz	(??_LCD_Initialize+0)+0,f
	goto	u4987
	nop2	;nop
opt asmopt_on

	line	27
	
l8165:	
;lcd.c: 27: LCD_Command(0x28);
	movlw	(028h)
	fcall	_LCD_Command
	line	28
	
l8167:	
;lcd.c: 28: _delay((unsigned long)((4.5)*(20000000UL/4000.0)));
	opt asmopt_off
movlw	30
movwf	((??_LCD_Initialize+0)+0+1),f
	movlw	55
movwf	((??_LCD_Initialize+0)+0),f
u4997:
	decfsz	((??_LCD_Initialize+0)+0),f
	goto	u4997
	decfsz	((??_LCD_Initialize+0)+0+1),f
	goto	u4997
opt asmopt_on

	line	29
	
l8169:	
;lcd.c: 29: LCD_Command(0x28);
	movlw	(028h)
	fcall	_LCD_Command
	line	30
	
l8171:	
;lcd.c: 30: _delay((unsigned long)((4.5)*(20000000UL/4000.0)));
	opt asmopt_off
movlw	30
movwf	((??_LCD_Initialize+0)+0+1),f
	movlw	55
movwf	((??_LCD_Initialize+0)+0),f
u5007:
	decfsz	((??_LCD_Initialize+0)+0),f
	goto	u5007
	decfsz	((??_LCD_Initialize+0)+0+1),f
	goto	u5007
opt asmopt_on

	line	31
	
l8173:	
;lcd.c: 31: LCD_Command(0x28);
	movlw	(028h)
	fcall	_LCD_Command
	line	32
	
l8175:	
;lcd.c: 32: _delay((unsigned long)((150)*(20000000UL/4000000.0)));
	opt asmopt_off
movlw	249
movwf	(??_LCD_Initialize+0)+0,f
u5017:
decfsz	(??_LCD_Initialize+0)+0,f
	goto	u5017
	nop2	;nop
opt asmopt_on

	line	33
	
l8177:	
;lcd.c: 33: LCD_Command(0x06);
	movlw	(06h)
	fcall	_LCD_Command
	line	34
	
l8179:	
;lcd.c: 34: _delay((unsigned long)((150)*(20000000UL/4000000.0)));
	opt asmopt_off
movlw	249
movwf	(??_LCD_Initialize+0)+0,f
u5027:
decfsz	(??_LCD_Initialize+0)+0,f
	goto	u5027
	nop2	;nop
opt asmopt_on

	line	35
	
l8181:	
;lcd.c: 35: LCD_Command(0x0C);
	movlw	(0Ch)
	fcall	_LCD_Command
	line	36
	
l8183:	
;lcd.c: 36: _delay((unsigned long)((150)*(20000000UL/4000000.0)));
	opt asmopt_off
movlw	249
movwf	(??_LCD_Initialize+0)+0,f
u5037:
decfsz	(??_LCD_Initialize+0)+0,f
	goto	u5037
	nop2	;nop
opt asmopt_on

	line	37
	
l8185:	
;lcd.c: 37: { LCD_Command(0x01); _delay((unsigned long)((20)*(20000000UL/4000.0)));};
	movlw	(01h)
	fcall	_LCD_Command
	
l8187:	
	opt asmopt_off
movlw	130
movwf	((??_LCD_Initialize+0)+0+1),f
	movlw	221
movwf	((??_LCD_Initialize+0)+0),f
u5047:
	decfsz	((??_LCD_Initialize+0)+0),f
	goto	u5047
	decfsz	((??_LCD_Initialize+0)+0+1),f
	goto	u5047
	nop2
opt asmopt_on

	line	38
	
l2296:	
	return
	opt stack 0
GLOBAL	__end_of_LCD_Initialize
	__end_of_LCD_Initialize:
;; =============== function _LCD_Initialize ends ============

	signat	_LCD_Initialize,88
	global	_LCD_Write
psect	text421,local,class=CODE,delta=2
global __ptext421
__ptext421:

;; *************** function _LCD_Write *****************
;; Defined at:
;;		line 48 in file "D:\pic controller,PIC16F877A\Password Based Circuit Breaker\lcd.c"
;; Parameters:    Size  Location     Type
;;  CommandData     1    wreg     unsigned char 
;;  DisplayData     1    4[COMMON] unsigned char 
;; Auto vars:     Size  Location     Type
;;  CommandData     1    6[COMMON] unsigned char 
;; Return value:  Size  Location     Type
;;		None               void
;; Registers used:
;;		wreg, status,2, status,0, pclath, cstack
;; Tracked objects:
;;		On entry : 0/0
;;		On exit  : 0/0
;;		Unchanged: 0/0
;; Data sizes:     COMMON   BANK0   BANK1   BANK3   BANK2
;;      Params:         1       0       0       0       0
;;      Locals:         1       0       0       0       0
;;      Temps:          1       0       0       0       0
;;      Totals:         3       0       0       0       0
;;Total ram usage:        3 bytes
;; Hardware stack levels used:    1
;; Hardware stack levels required when called:    2
;; This function calls:
;;		_LCD_Command
;;		_LCD_Allort
;; This function is called by:
;;		_LCD_Disp
;;		_main
;;		_ChangePassWord
;;		_Keypad
;; This function uses a non-reentrant model
;;
psect	text421
	file	"D:\pic controller,PIC16F877A\Password Based Circuit Breaker\lcd.c"
	line	48
	global	__size_of_LCD_Write
	__size_of_LCD_Write	equ	__end_of_LCD_Write-_LCD_Write
	
_LCD_Write:	
	opt	stack 5
; Regs used in _LCD_Write: [wreg+status,2+status,0+pclath+cstack]
;LCD_Write@CommandData stored from wreg
	movwf	(LCD_Write@CommandData)
	line	49
	
l8117:	
;lcd.c: 49: LCD_Command(CommandData);
	movf	(LCD_Write@CommandData),w
	fcall	_LCD_Command
	line	50
	
l8119:	
;lcd.c: 50: PORTB |= (1 << 5);
	bcf	status, 5	;RP0=0, select bank0
	bcf	status, 6	;RP1=0, select bank0
	bsf	(6)+(5/8),(5)&7	;volatile
	line	51
;lcd.c: 51: LCD_Allort(DisplayData & 0xF0); { PORTB &=~ (1 << 4); _delay((unsigned long)((5)*(20000000UL/4000000.0))); PORTB |= (1 << 4); _delay((unsigned long)((5)*(20000000UL/4000000.0))); PORTB &=~ (1 << 4); _delay((unsigned long)((100)*(20000000UL/4000000.0)
	movf	(LCD_Write@DisplayData),w
	andlw	0F0h
	fcall	_LCD_Allort
	
l8121:	
	movlw	(0EFh)
	movwf	(??_LCD_Write+0)+0
	movf	(??_LCD_Write+0)+0,w
	bcf	status, 5	;RP0=0, select bank0
	bcf	status, 6	;RP1=0, select bank0
	andwf	(6),f	;volatile
	
l8123:	
	opt asmopt_off
movlw	8
movwf	(??_LCD_Write+0)+0,f
u5057:
decfsz	(??_LCD_Write+0)+0,f
	goto	u5057
opt asmopt_on

	
l8125:	
	bcf	status, 5	;RP0=0, select bank0
	bcf	status, 6	;RP1=0, select bank0
	bsf	(6)+(4/8),(4)&7	;volatile
	
l8127:	
	opt asmopt_off
movlw	8
movwf	(??_LCD_Write+0)+0,f
u5067:
decfsz	(??_LCD_Write+0)+0,f
	goto	u5067
opt asmopt_on

	
l8129:	
	movlw	(0EFh)
	movwf	(??_LCD_Write+0)+0
	movf	(??_LCD_Write+0)+0,w
	bcf	status, 5	;RP0=0, select bank0
	bcf	status, 6	;RP1=0, select bank0
	andwf	(6),f	;volatile
	
l8131:	
	opt asmopt_off
movlw	166
movwf	(??_LCD_Write+0)+0,f
u5077:
decfsz	(??_LCD_Write+0)+0,f
	goto	u5077
	clrwdt
opt asmopt_on

	line	52
	
l8133:	
;lcd.c: 52: LCD_Allort((DisplayData << 4) & 0xF0); { PORTB &=~ (1 << 4); _delay((unsigned long)((5)*(20000000UL/4000000.0))); PORTB |= (1 << 4); _delay((unsigned long)((5)*(20000000UL/4000000.0))); PORTB &=~ (1 << 4); _delay((unsigned long)((100)*(20000000UL/400
	movf	(LCD_Write@DisplayData),w
	movwf	(??_LCD_Write+0)+0
	movlw	(04h)-1
u4595:
	clrc
	rlf	(??_LCD_Write+0)+0,f
	addlw	-1
	skipz
	goto	u4595
	clrc
	rlf	(??_LCD_Write+0)+0,w
	andlw	0F0h
	fcall	_LCD_Allort
	
l8135:	
	movlw	(0EFh)
	movwf	(??_LCD_Write+0)+0
	movf	(??_LCD_Write+0)+0,w
	bcf	status, 5	;RP0=0, select bank0
	bcf	status, 6	;RP1=0, select bank0
	andwf	(6),f	;volatile
	
l8137:	
	opt asmopt_off
movlw	8
movwf	(??_LCD_Write+0)+0,f
u5087:
decfsz	(??_LCD_Write+0)+0,f
	goto	u5087
opt asmopt_on

	
l8139:	
	bcf	status, 5	;RP0=0, select bank0
	bcf	status, 6	;RP1=0, select bank0
	bsf	(6)+(4/8),(4)&7	;volatile
	
l8141:	
	opt asmopt_off
movlw	8
movwf	(??_LCD_Write+0)+0,f
u5097:
decfsz	(??_LCD_Write+0)+0,f
	goto	u5097
opt asmopt_on

	
l8143:	
	movlw	(0EFh)
	movwf	(??_LCD_Write+0)+0
	movf	(??_LCD_Write+0)+0,w
	bcf	status, 5	;RP0=0, select bank0
	bcf	status, 6	;RP1=0, select bank0
	andwf	(6),f	;volatile
	opt asmopt_off
movlw	166
movwf	(??_LCD_Write+0)+0,f
u5107:
decfsz	(??_LCD_Write+0)+0,f
	goto	u5107
	clrwdt
opt asmopt_on

	line	53
	
l2302:	
	return
	opt stack 0
GLOBAL	__end_of_LCD_Write
	__end_of_LCD_Write:
;; =============== function _LCD_Write ends ============

	signat	_LCD_Write,8312
	global	_atoi
psect	text422,local,class=CODE,delta=2
global __ptext422
__ptext422:

;; *************** function _atoi *****************
;; Defined at:
;;		line 6 in file "C:\Program Files (x86)\HI-TECH Software\PICC\9.82\sources\atoi.c"
;; Parameters:    Size  Location     Type
;;  s               1    wreg     PTR const unsigned char 
;;		 -> LocalArray(5), RTC_Keypad@LocalArray(4), 
;; Auto vars:     Size  Location     Type
;;  s               1   13[COMMON] PTR const unsigned char 
;;		 -> LocalArray(5), RTC_Keypad@LocalArray(4), 
;;  a               2   11[COMMON] int 
;;  sign            1   10[COMMON] unsigned char 
;; Return value:  Size  Location     Type
;;                  2    6[COMMON] int 
;; Registers used:
;;		wreg, fsr0l, fsr0h, status,2, status,0, pclath, cstack
;; Tracked objects:
;;		On entry : 0/0
;;		On exit  : 0/0
;;		Unchanged: 0/0
;; Data sizes:     COMMON   BANK0   BANK1   BANK3   BANK2
;;      Params:         2       0       0       0       0
;;      Locals:         4       0       0       0       0
;;      Temps:          2       0       0       0       0
;;      Totals:         8       0       0       0       0
;;Total ram usage:        8 bytes
;; Hardware stack levels used:    1
;; Hardware stack levels required when called:    1
;; This function calls:
;;		___wmul
;;		_isdigit
;; This function is called by:
;;		_main
;;		_ChangePassWord
;;		_RTC_Keypad
;; This function uses a non-reentrant model
;;
psect	text422
	file	"C:\Program Files (x86)\HI-TECH Software\PICC\9.82\sources\atoi.c"
	line	6
	global	__size_of_atoi
	__size_of_atoi	equ	__end_of_atoi-_atoi
	
_atoi:	
	opt	stack 5
; Regs used in _atoi: [wreg-fsr0h+status,2+status,0+pclath+cstack]
;atoi@s stored from wreg
	movwf	(atoi@s)
	line	10
	
l8081:	
	goto	l8085
	
l5033:	
	line	11
	
l8083:	
	movlw	(01h)
	movwf	(??_atoi+0)+0
	movf	(??_atoi+0)+0,w
	addwf	(atoi@s),f
	goto	l8085
	
l5032:	
	line	10
	
l8085:	
	movf	(atoi@s),w
	movwf	fsr0
	bcf	status, 7	;select IRP bank0
	movf	indf,w
	xorlw	020h
	skipnz
	goto	u4531
	goto	u4530
u4531:
	goto	l8083
u4530:
	
l8087:	
	movf	(atoi@s),w
	movwf	fsr0
	movf	indf,w
	xorlw	09h
	skipnz
	goto	u4541
	goto	u4540
u4541:
	goto	l8083
u4540:
	goto	l8089
	
l5034:	
	line	12
	
l8089:	
	clrf	(atoi@a)
	clrf	(atoi@a+1)
	line	13
	
l8091:	
	clrf	(atoi@sign)
	line	14
	
l8093:	
	movf	(atoi@s),w
	movwf	fsr0
	movf	indf,w
	xorlw	02Dh
	skipz
	goto	u4551
	goto	u4550
u4551:
	goto	l8097
u4550:
	line	15
	
l8095:	
	movlw	(01h)
	movwf	(??_atoi+0)+0
	movf	(??_atoi+0)+0,w
	addwf	(atoi@sign),f
	line	16
	movlw	(01h)
	movwf	(??_atoi+0)+0
	movf	(??_atoi+0)+0,w
	addwf	(atoi@s),f
	line	17
	goto	l8105
	
l5035:	
	
l8097:	
	movf	(atoi@s),w
	movwf	fsr0
	movf	indf,w
	xorlw	02Bh
	skipz
	goto	u4561
	goto	u4560
u4561:
	goto	l8105
u4560:
	line	18
	
l8099:	
	movlw	(01h)
	movwf	(??_atoi+0)+0
	movf	(??_atoi+0)+0,w
	addwf	(atoi@s),f
	goto	l8105
	
l5037:	
	goto	l8105
	line	19
	
l5036:	
	goto	l8105
	
l5039:	
	line	20
	
l8101:	
	movf	(atoi@a+1),w
	clrf	(?___wmul+1)
	addwf	(?___wmul+1)
	movf	(atoi@a),w
	clrf	(?___wmul)
	addwf	(?___wmul)

	movlw	low(0Ah)
	movwf	0+(?___wmul)+02h
	movlw	high(0Ah)
	movwf	(0+(?___wmul)+02h)+1
	fcall	___wmul
	movf	(atoi@s),w
	movwf	fsr0
	bcf	status, 7	;select IRP bank0
	movf	indf,w
	addwf	(0+(?___wmul)),w
	movwf	(??_atoi+0)+0
	movf	(1+(?___wmul)),w
	skipnc
	incf	(1+(?___wmul)),w
	movwf	((??_atoi+0)+0)+1
	movf	0+(??_atoi+0)+0,w
	addlw	low(0FFD0h)
	movwf	(atoi@a)
	movf	1+(??_atoi+0)+0,w
	skipnc
	addlw	1
	addlw	high(0FFD0h)
	movwf	1+(atoi@a)
	
l8103:	
	movlw	(01h)
	movwf	(??_atoi+0)+0
	movf	(??_atoi+0)+0,w
	addwf	(atoi@s),f
	goto	l8105
	
l5038:	
	line	19
	
l8105:	
	movf	(atoi@s),w
	movwf	fsr0
	movf	indf,w
	fcall	_isdigit
	btfsc	status,0
	goto	u4571
	goto	u4570
u4571:
	goto	l8101
u4570:
	goto	l8107
	
l5040:	
	line	21
	
l8107:	
	movf	(atoi@sign),w
	skipz
	goto	u4580
	goto	l8113
u4580:
	line	22
	
l8109:	
	comf	(atoi@a),w
	movwf	(??_atoi+0)+0
	comf	(atoi@a+1),w
	movwf	((??_atoi+0)+0+1)
	incf	(??_atoi+0)+0,f
	skipnz
	incf	((??_atoi+0)+0+1),f
	movf	0+(??_atoi+0)+0,w
	movwf	(?_atoi)
	movf	1+(??_atoi+0)+0,w
	movwf	(?_atoi+1)
	goto	l5042
	
l8111:	
	goto	l5042
	
l5041:	
	line	23
	
l8113:	
	movf	(atoi@a+1),w
	clrf	(?_atoi+1)
	addwf	(?_atoi+1)
	movf	(atoi@a),w
	clrf	(?_atoi)
	addwf	(?_atoi)

	goto	l5042
	
l8115:	
	line	24
	
l5042:	
	return
	opt stack 0
GLOBAL	__end_of_atoi
	__end_of_atoi:
;; =============== function _atoi ends ============

	signat	_atoi,4218
	global	_LCD_Command
psect	text423,local,class=CODE,delta=2
global __ptext423
__ptext423:

;; *************** function _LCD_Command *****************
;; Defined at:
;;		line 41 in file "D:\pic controller,PIC16F877A\Password Based Circuit Breaker\lcd.c"
;; Parameters:    Size  Location     Type
;;  CommandData     1    wreg     unsigned char 
;; Auto vars:     Size  Location     Type
;;  CommandData     1    3[COMMON] unsigned char 
;; Return value:  Size  Location     Type
;;		None               void
;; Registers used:
;;		wreg, status,2, status,0, pclath, cstack
;; Tracked objects:
;;		On entry : 0/0
;;		On exit  : 0/0
;;		Unchanged: 0/0
;; Data sizes:     COMMON   BANK0   BANK1   BANK3   BANK2
;;      Params:         0       0       0       0       0
;;      Locals:         1       0       0       0       0
;;      Temps:          1       0       0       0       0
;;      Totals:         2       0       0       0       0
;;Total ram usage:        2 bytes
;; Hardware stack levels used:    1
;; Hardware stack levels required when called:    1
;; This function calls:
;;		_LCD_Allort
;; This function is called by:
;;		_LCD_Initialize
;;		_LCD_Write
;;		_main
;;		_ChangePassWord
;;		_Keypad
;;		_RTC_Keypad
;; This function uses a non-reentrant model
;;
psect	text423
	file	"D:\pic controller,PIC16F877A\Password Based Circuit Breaker\lcd.c"
	line	41
	global	__size_of_LCD_Command
	__size_of_LCD_Command	equ	__end_of_LCD_Command-_LCD_Command
	
_LCD_Command:	
	opt	stack 5
; Regs used in _LCD_Command: [wreg+status,2+status,0+pclath+cstack]
;LCD_Command@CommandData stored from wreg
	movwf	(LCD_Command@CommandData)
	line	42
	
l8055:	
;lcd.c: 42: PORTB &=~ (1 << 5);
	movlw	(0DFh)
	movwf	(??_LCD_Command+0)+0
	movf	(??_LCD_Command+0)+0,w
	bcf	status, 5	;RP0=0, select bank0
	bcf	status, 6	;RP1=0, select bank0
	andwf	(6),f	;volatile
	line	43
	
l8057:	
;lcd.c: 43: LCD_Allort(CommandData & 0xF0); { PORTB &=~ (1 << 4); _delay((unsigned long)((5)*(20000000UL/4000000.0))); PORTB |= (1 << 4); _delay((unsigned long)((5)*(20000000UL/4000000.0))); PORTB &=~ (1 << 4); _delay((unsigned long)((100)*(20000000UL/4000000.0)
	movf	(LCD_Command@CommandData),w
	andlw	0F0h
	fcall	_LCD_Allort
	
l8059:	
	movlw	(0EFh)
	movwf	(??_LCD_Command+0)+0
	movf	(??_LCD_Command+0)+0,w
	bcf	status, 5	;RP0=0, select bank0
	bcf	status, 6	;RP1=0, select bank0
	andwf	(6),f	;volatile
	
l8061:	
	opt asmopt_off
movlw	8
movwf	(??_LCD_Command+0)+0,f
u5117:
decfsz	(??_LCD_Command+0)+0,f
	goto	u5117
opt asmopt_on

	
l8063:	
	bcf	status, 5	;RP0=0, select bank0
	bcf	status, 6	;RP1=0, select bank0
	bsf	(6)+(4/8),(4)&7	;volatile
	
l8065:	
	opt asmopt_off
movlw	8
movwf	(??_LCD_Command+0)+0,f
u5127:
decfsz	(??_LCD_Command+0)+0,f
	goto	u5127
opt asmopt_on

	
l8067:	
	movlw	(0EFh)
	movwf	(??_LCD_Command+0)+0
	movf	(??_LCD_Command+0)+0,w
	bcf	status, 5	;RP0=0, select bank0
	bcf	status, 6	;RP1=0, select bank0
	andwf	(6),f	;volatile
	
l8069:	
	opt asmopt_off
movlw	166
movwf	(??_LCD_Command+0)+0,f
u5137:
decfsz	(??_LCD_Command+0)+0,f
	goto	u5137
	clrwdt
opt asmopt_on

	line	44
	
l8071:	
;lcd.c: 44: LCD_Allort((CommandData << 4) & 0xF0); { PORTB &=~ (1 << 4); _delay((unsigned long)((5)*(20000000UL/4000000.0))); PORTB |= (1 << 4); _delay((unsigned long)((5)*(20000000UL/4000000.0))); PORTB &=~ (1 << 4); _delay((unsigned long)((100)*(20000000UL/400
	movf	(LCD_Command@CommandData),w
	movwf	(??_LCD_Command+0)+0
	movlw	(04h)-1
u4525:
	clrc
	rlf	(??_LCD_Command+0)+0,f
	addlw	-1
	skipz
	goto	u4525
	clrc
	rlf	(??_LCD_Command+0)+0,w
	andlw	0F0h
	fcall	_LCD_Allort
	
l8073:	
	movlw	(0EFh)
	movwf	(??_LCD_Command+0)+0
	movf	(??_LCD_Command+0)+0,w
	bcf	status, 5	;RP0=0, select bank0
	bcf	status, 6	;RP1=0, select bank0
	andwf	(6),f	;volatile
	opt asmopt_off
movlw	8
movwf	(??_LCD_Command+0)+0,f
u5147:
decfsz	(??_LCD_Command+0)+0,f
	goto	u5147
opt asmopt_on

	
l8075:	
	bcf	status, 5	;RP0=0, select bank0
	bcf	status, 6	;RP1=0, select bank0
	bsf	(6)+(4/8),(4)&7	;volatile
	opt asmopt_off
movlw	8
movwf	(??_LCD_Command+0)+0,f
u5157:
decfsz	(??_LCD_Command+0)+0,f
	goto	u5157
opt asmopt_on

	
l8077:	
	movlw	(0EFh)
	movwf	(??_LCD_Command+0)+0
	movf	(??_LCD_Command+0)+0,w
	bcf	status, 5	;RP0=0, select bank0
	bcf	status, 6	;RP1=0, select bank0
	andwf	(6),f	;volatile
	
l8079:	
	opt asmopt_off
movlw	166
movwf	(??_LCD_Command+0)+0,f
u5167:
decfsz	(??_LCD_Command+0)+0,f
	goto	u5167
	clrwdt
opt asmopt_on

	line	45
	
l2299:	
	return
	opt stack 0
GLOBAL	__end_of_LCD_Command
	__end_of_LCD_Command:
;; =============== function _LCD_Command ends ============

	signat	_LCD_Command,4216
	global	_FetchKey
psect	text424,local,class=CODE,delta=2
global __ptext424
__ptext424:

;; *************** function _FetchKey *****************
;; Defined at:
;;		line 39 in file "D:\pic controller,PIC16F877A\Password Based Circuit Breaker\keypad.c"
;; Parameters:    Size  Location     Type
;;  Var1            1    wreg     PTR unsigned int 
;;		 -> KeyDebounceTime(2), Keypad@KeyFetchTime(2), 
;; Auto vars:     Size  Location     Type
;;  Var1            1    4[COMMON] PTR unsigned int 
;;		 -> KeyDebounceTime(2), Keypad@KeyFetchTime(2), 
;;  ButtonPresse    2    2[COMMON] unsigned int 
;; Return value:  Size  Location     Type
;;                  1    wreg      unsigned char 
;; Registers used:
;;		wreg, fsr0l, fsr0h, status,2
;; Tracked objects:
;;		On entry : 0/0
;;		On exit  : 0/0
;;		Unchanged: 0/0
;; Data sizes:     COMMON   BANK0   BANK1   BANK3   BANK2
;;      Params:         0       0       0       0       0
;;      Locals:         3       0       0       0       0
;;      Temps:          2       0       0       0       0
;;      Totals:         5       0       0       0       0
;;Total ram usage:        5 bytes
;; Hardware stack levels used:    1
;; This function calls:
;;		Nothing
;; This function is called by:
;;		_main
;;		_ChangePassWord
;;		_Keypad
;; This function uses a non-reentrant model
;;
psect	text424
	file	"D:\pic controller,PIC16F877A\Password Based Circuit Breaker\keypad.c"
	line	39
	global	__size_of_FetchKey
	__size_of_FetchKey	equ	__end_of_FetchKey-_FetchKey
	
_FetchKey:	
	opt	stack 6
; Regs used in _FetchKey: [wreg-fsr0h+status,2]
;FetchKey@Var1 stored from wreg
	movwf	(FetchKey@Var1)
	line	40
	
l7833:	
;keypad.c: 40: unsigned int ButtonPressedTime = 0x00;
	clrf	(FetchKey@ButtonPressedTime)
	clrf	(FetchKey@ButtonPressedTime+1)
	line	89
;keypad.c: 89: while(!Row1 && !Row2 && !Row3 && !Row4);
	goto	l1501
	
l1502:	
	
l1501:	
	bcf	status, 5	;RP0=0, select bank0
	bcf	status, 6	;RP1=0, select bank0
	btfsc	(40/8),(40)&7
	goto	u4041
	goto	u4040
u4041:
	goto	l1505
u4040:
	
l7835:	
	btfsc	(41/8),(41)&7
	goto	u4051
	goto	u4050
u4051:
	goto	l1505
u4050:
	
l7837:	
	btfsc	(42/8),(42)&7
	goto	u4061
	goto	u4060
u4061:
	goto	l1505
u4060:
	
l7839:	
	btfss	(43/8),(43)&7
	goto	u4071
	goto	u4070
u4071:
	goto	l1501
u4070:
	goto	l1505
	
l1504:	
	
l1505:	
	line	90
;keypad.c: 90: Col1 = 0; Col2 = 1; Col3 = 1; Col4 = 1;
	bcf	(56/8),(56)&7
	bsf	(57/8),(57)&7
	bsf	(58/8),(58)&7
	bsf	(59/8),(59)&7
	line	91
;keypad.c: 91: if(!Row1)
	btfsc	(40/8),(40)&7
	goto	u4081
	goto	u4080
u4081:
	goto	l1506
u4080:
	goto	l7847
	line	93
	
l7841:	
;keypad.c: 92: {
;keypad.c: 93: while(!Row1)
	goto	l7847
	
l1508:	
	line	95
	
l7843:	
;keypad.c: 94: {
;keypad.c: 95: *Var1 = ++ButtonPressedTime;
	movlw	low(01h)
	addwf	(FetchKey@ButtonPressedTime),f
	skipnc
	incf	(FetchKey@ButtonPressedTime+1),f
	movlw	high(01h)
	addwf	(FetchKey@ButtonPressedTime+1),f
	movf	(FetchKey@Var1),w
	movwf	fsr0
	movf	((FetchKey@ButtonPressedTime)),w
	bcf	status, 7	;select IRP bank0
	movwf	indf
	incf	fsr0,f
	movf	((FetchKey@ButtonPressedTime+1)),w
	movwf	indf
	line	96
	
l7845:	
;keypad.c: 96: _delay((unsigned long)((1)*(20000000UL/4000.0)));
	opt asmopt_off
movlw	7
movwf	((??_FetchKey+0)+0+1),f
	movlw	125
movwf	((??_FetchKey+0)+0),f
u5177:
	decfsz	((??_FetchKey+0)+0),f
	goto	u5177
	decfsz	((??_FetchKey+0)+0+1),f
	goto	u5177
opt asmopt_on

	goto	l7847
	line	97
	
l1507:	
	line	93
	
l7847:	
	bcf	status, 5	;RP0=0, select bank0
	bcf	status, 6	;RP1=0, select bank0
	btfss	(40/8),(40)&7
	goto	u4091
	goto	u4090
u4091:
	goto	l7843
u4090:
	goto	l7849
	
l1509:	
	line	98
	
l7849:	
;keypad.c: 97: }
;keypad.c: 98: return '1';
	movlw	(031h)
	goto	l1510
	
l7851:	
	goto	l1510
	line	99
	
l1506:	
	line	100
;keypad.c: 99: }
;keypad.c: 100: if(!Row2)
	btfsc	(41/8),(41)&7
	goto	u4101
	goto	u4100
u4101:
	goto	l1511
u4100:
	goto	l7859
	line	102
	
l7853:	
;keypad.c: 101: {
;keypad.c: 102: while(!Row2)
	goto	l7859
	
l1513:	
	line	104
	
l7855:	
;keypad.c: 103: {
;keypad.c: 104: *Var1 = ++ButtonPressedTime;
	movlw	low(01h)
	addwf	(FetchKey@ButtonPressedTime),f
	skipnc
	incf	(FetchKey@ButtonPressedTime+1),f
	movlw	high(01h)
	addwf	(FetchKey@ButtonPressedTime+1),f
	movf	(FetchKey@Var1),w
	movwf	fsr0
	movf	((FetchKey@ButtonPressedTime)),w
	bcf	status, 7	;select IRP bank0
	movwf	indf
	incf	fsr0,f
	movf	((FetchKey@ButtonPressedTime+1)),w
	movwf	indf
	line	105
	
l7857:	
;keypad.c: 105: _delay((unsigned long)((1)*(20000000UL/4000.0)));
	opt asmopt_off
movlw	7
movwf	((??_FetchKey+0)+0+1),f
	movlw	125
movwf	((??_FetchKey+0)+0),f
u5187:
	decfsz	((??_FetchKey+0)+0),f
	goto	u5187
	decfsz	((??_FetchKey+0)+0+1),f
	goto	u5187
opt asmopt_on

	goto	l7859
	line	106
	
l1512:	
	line	102
	
l7859:	
	bcf	status, 5	;RP0=0, select bank0
	bcf	status, 6	;RP1=0, select bank0
	btfss	(41/8),(41)&7
	goto	u4111
	goto	u4110
u4111:
	goto	l7855
u4110:
	goto	l7861
	
l1514:	
	line	107
	
l7861:	
;keypad.c: 106: }
;keypad.c: 107: return '4';
	movlw	(034h)
	goto	l1510
	
l7863:	
	goto	l1510
	line	108
	
l1511:	
	line	109
;keypad.c: 108: }
;keypad.c: 109: if(!Row3)
	btfsc	(42/8),(42)&7
	goto	u4121
	goto	u4120
u4121:
	goto	l1515
u4120:
	goto	l7871
	line	111
	
l7865:	
;keypad.c: 110: {
;keypad.c: 111: while(!Row3)
	goto	l7871
	
l1517:	
	line	113
	
l7867:	
;keypad.c: 112: {
;keypad.c: 113: *Var1 = ++ButtonPressedTime;
	movlw	low(01h)
	addwf	(FetchKey@ButtonPressedTime),f
	skipnc
	incf	(FetchKey@ButtonPressedTime+1),f
	movlw	high(01h)
	addwf	(FetchKey@ButtonPressedTime+1),f
	movf	(FetchKey@Var1),w
	movwf	fsr0
	movf	((FetchKey@ButtonPressedTime)),w
	bcf	status, 7	;select IRP bank0
	movwf	indf
	incf	fsr0,f
	movf	((FetchKey@ButtonPressedTime+1)),w
	movwf	indf
	line	114
	
l7869:	
;keypad.c: 114: _delay((unsigned long)((1)*(20000000UL/4000.0)));
	opt asmopt_off
movlw	7
movwf	((??_FetchKey+0)+0+1),f
	movlw	125
movwf	((??_FetchKey+0)+0),f
u5197:
	decfsz	((??_FetchKey+0)+0),f
	goto	u5197
	decfsz	((??_FetchKey+0)+0+1),f
	goto	u5197
opt asmopt_on

	goto	l7871
	line	115
	
l1516:	
	line	111
	
l7871:	
	bcf	status, 5	;RP0=0, select bank0
	bcf	status, 6	;RP1=0, select bank0
	btfss	(42/8),(42)&7
	goto	u4131
	goto	u4130
u4131:
	goto	l7867
u4130:
	goto	l7873
	
l1518:	
	line	116
	
l7873:	
;keypad.c: 115: }
;keypad.c: 116: return '7';
	movlw	(037h)
	goto	l1510
	
l7875:	
	goto	l1510
	line	117
	
l1515:	
	line	118
;keypad.c: 117: }
;keypad.c: 118: if(!Row4)
	btfsc	(43/8),(43)&7
	goto	u4141
	goto	u4140
u4141:
	goto	l1523
u4140:
	goto	l7883
	line	120
	
l7877:	
;keypad.c: 119: {
;keypad.c: 120: while(!Row4)
	goto	l7883
	
l1521:	
	line	122
	
l7879:	
;keypad.c: 121: {
;keypad.c: 122: *Var1 = ++ButtonPressedTime;
	movlw	low(01h)
	addwf	(FetchKey@ButtonPressedTime),f
	skipnc
	incf	(FetchKey@ButtonPressedTime+1),f
	movlw	high(01h)
	addwf	(FetchKey@ButtonPressedTime+1),f
	movf	(FetchKey@Var1),w
	movwf	fsr0
	movf	((FetchKey@ButtonPressedTime)),w
	bcf	status, 7	;select IRP bank0
	movwf	indf
	incf	fsr0,f
	movf	((FetchKey@ButtonPressedTime+1)),w
	movwf	indf
	line	123
	
l7881:	
;keypad.c: 123: _delay((unsigned long)((1)*(20000000UL/4000.0)));
	opt asmopt_off
movlw	7
movwf	((??_FetchKey+0)+0+1),f
	movlw	125
movwf	((??_FetchKey+0)+0),f
u5207:
	decfsz	((??_FetchKey+0)+0),f
	goto	u5207
	decfsz	((??_FetchKey+0)+0+1),f
	goto	u5207
opt asmopt_on

	goto	l7883
	line	124
	
l1520:	
	line	120
	
l7883:	
	bcf	status, 5	;RP0=0, select bank0
	bcf	status, 6	;RP1=0, select bank0
	btfss	(43/8),(43)&7
	goto	u4151
	goto	u4150
u4151:
	goto	l7879
u4150:
	goto	l7885
	
l1522:	
	line	125
	
l7885:	
;keypad.c: 124: }
;keypad.c: 125: return '*';
	movlw	(02Ah)
	goto	l1510
	
l7887:	
	goto	l1510
	line	126
	
l1519:	
	line	128
;keypad.c: 126: }
;keypad.c: 128: while(!Row1 && !Row2 && !Row3 && !Row4);
	goto	l1523
	
l1524:	
	
l1523:	
	btfsc	(40/8),(40)&7
	goto	u4161
	goto	u4160
u4161:
	goto	l1527
u4160:
	
l7889:	
	btfsc	(41/8),(41)&7
	goto	u4171
	goto	u4170
u4171:
	goto	l1527
u4170:
	
l7891:	
	btfsc	(42/8),(42)&7
	goto	u4181
	goto	u4180
u4181:
	goto	l1527
u4180:
	
l7893:	
	btfss	(43/8),(43)&7
	goto	u4191
	goto	u4190
u4191:
	goto	l1523
u4190:
	goto	l1527
	
l1526:	
	
l1527:	
	line	129
;keypad.c: 129: Col1 = 1; Col2 = 0; Col3 = 1; Col4 = 1;
	bsf	(56/8),(56)&7
	bcf	(57/8),(57)&7
	bsf	(58/8),(58)&7
	bsf	(59/8),(59)&7
	line	130
;keypad.c: 130: if(!Row1)
	btfsc	(40/8),(40)&7
	goto	u4201
	goto	u4200
u4201:
	goto	l1528
u4200:
	goto	l7901
	line	132
	
l7895:	
;keypad.c: 131: {
;keypad.c: 132: while(!Row1)
	goto	l7901
	
l1530:	
	line	134
	
l7897:	
;keypad.c: 133: {
;keypad.c: 134: *Var1 = ++ButtonPressedTime;
	movlw	low(01h)
	addwf	(FetchKey@ButtonPressedTime),f
	skipnc
	incf	(FetchKey@ButtonPressedTime+1),f
	movlw	high(01h)
	addwf	(FetchKey@ButtonPressedTime+1),f
	movf	(FetchKey@Var1),w
	movwf	fsr0
	movf	((FetchKey@ButtonPressedTime)),w
	bcf	status, 7	;select IRP bank0
	movwf	indf
	incf	fsr0,f
	movf	((FetchKey@ButtonPressedTime+1)),w
	movwf	indf
	line	135
	
l7899:	
;keypad.c: 135: _delay((unsigned long)((1)*(20000000UL/4000.0)));
	opt asmopt_off
movlw	7
movwf	((??_FetchKey+0)+0+1),f
	movlw	125
movwf	((??_FetchKey+0)+0),f
u5217:
	decfsz	((??_FetchKey+0)+0),f
	goto	u5217
	decfsz	((??_FetchKey+0)+0+1),f
	goto	u5217
opt asmopt_on

	goto	l7901
	line	136
	
l1529:	
	line	132
	
l7901:	
	bcf	status, 5	;RP0=0, select bank0
	bcf	status, 6	;RP1=0, select bank0
	btfss	(40/8),(40)&7
	goto	u4211
	goto	u4210
u4211:
	goto	l7897
u4210:
	goto	l7903
	
l1531:	
	line	137
	
l7903:	
;keypad.c: 136: }
;keypad.c: 137: return '2';
	movlw	(032h)
	goto	l1510
	
l7905:	
	goto	l1510
	line	138
	
l1528:	
	line	139
;keypad.c: 138: }
;keypad.c: 139: if(!Row2)
	btfsc	(41/8),(41)&7
	goto	u4221
	goto	u4220
u4221:
	goto	l1532
u4220:
	goto	l7913
	line	141
	
l7907:	
;keypad.c: 140: {
;keypad.c: 141: while(!Row2)
	goto	l7913
	
l1534:	
	line	143
	
l7909:	
;keypad.c: 142: {
;keypad.c: 143: *Var1 = ++ButtonPressedTime;
	movlw	low(01h)
	addwf	(FetchKey@ButtonPressedTime),f
	skipnc
	incf	(FetchKey@ButtonPressedTime+1),f
	movlw	high(01h)
	addwf	(FetchKey@ButtonPressedTime+1),f
	movf	(FetchKey@Var1),w
	movwf	fsr0
	movf	((FetchKey@ButtonPressedTime)),w
	bcf	status, 7	;select IRP bank0
	movwf	indf
	incf	fsr0,f
	movf	((FetchKey@ButtonPressedTime+1)),w
	movwf	indf
	line	144
	
l7911:	
;keypad.c: 144: _delay((unsigned long)((1)*(20000000UL/4000.0)));
	opt asmopt_off
movlw	7
movwf	((??_FetchKey+0)+0+1),f
	movlw	125
movwf	((??_FetchKey+0)+0),f
u5227:
	decfsz	((??_FetchKey+0)+0),f
	goto	u5227
	decfsz	((??_FetchKey+0)+0+1),f
	goto	u5227
opt asmopt_on

	goto	l7913
	line	145
	
l1533:	
	line	141
	
l7913:	
	bcf	status, 5	;RP0=0, select bank0
	bcf	status, 6	;RP1=0, select bank0
	btfss	(41/8),(41)&7
	goto	u4231
	goto	u4230
u4231:
	goto	l7909
u4230:
	goto	l7915
	
l1535:	
	line	146
	
l7915:	
;keypad.c: 145: }
;keypad.c: 146: return '5';
	movlw	(035h)
	goto	l1510
	
l7917:	
	goto	l1510
	line	147
	
l1532:	
	line	148
;keypad.c: 147: }
;keypad.c: 148: if(!Row3)
	btfsc	(42/8),(42)&7
	goto	u4241
	goto	u4240
u4241:
	goto	l1536
u4240:
	goto	l7925
	line	150
	
l7919:	
;keypad.c: 149: {
;keypad.c: 150: while(!Row3)
	goto	l7925
	
l1538:	
	line	152
	
l7921:	
;keypad.c: 151: {
;keypad.c: 152: *Var1 = ++ButtonPressedTime;
	movlw	low(01h)
	addwf	(FetchKey@ButtonPressedTime),f
	skipnc
	incf	(FetchKey@ButtonPressedTime+1),f
	movlw	high(01h)
	addwf	(FetchKey@ButtonPressedTime+1),f
	movf	(FetchKey@Var1),w
	movwf	fsr0
	movf	((FetchKey@ButtonPressedTime)),w
	bcf	status, 7	;select IRP bank0
	movwf	indf
	incf	fsr0,f
	movf	((FetchKey@ButtonPressedTime+1)),w
	movwf	indf
	line	153
	
l7923:	
;keypad.c: 153: _delay((unsigned long)((1)*(20000000UL/4000.0)));
	opt asmopt_off
movlw	7
movwf	((??_FetchKey+0)+0+1),f
	movlw	125
movwf	((??_FetchKey+0)+0),f
u5237:
	decfsz	((??_FetchKey+0)+0),f
	goto	u5237
	decfsz	((??_FetchKey+0)+0+1),f
	goto	u5237
opt asmopt_on

	goto	l7925
	line	154
	
l1537:	
	line	150
	
l7925:	
	bcf	status, 5	;RP0=0, select bank0
	bcf	status, 6	;RP1=0, select bank0
	btfss	(42/8),(42)&7
	goto	u4251
	goto	u4250
u4251:
	goto	l7921
u4250:
	goto	l7927
	
l1539:	
	line	155
	
l7927:	
;keypad.c: 154: }
;keypad.c: 155: return '8';
	movlw	(038h)
	goto	l1510
	
l7929:	
	goto	l1510
	line	156
	
l1536:	
	line	157
;keypad.c: 156: }
;keypad.c: 157: if(!Row4)
	btfsc	(43/8),(43)&7
	goto	u4261
	goto	u4260
u4261:
	goto	l1544
u4260:
	goto	l7937
	line	159
	
l7931:	
;keypad.c: 158: {
;keypad.c: 159: while(!Row4)
	goto	l7937
	
l1542:	
	line	161
	
l7933:	
;keypad.c: 160: {
;keypad.c: 161: *Var1 = ++ButtonPressedTime;
	movlw	low(01h)
	addwf	(FetchKey@ButtonPressedTime),f
	skipnc
	incf	(FetchKey@ButtonPressedTime+1),f
	movlw	high(01h)
	addwf	(FetchKey@ButtonPressedTime+1),f
	movf	(FetchKey@Var1),w
	movwf	fsr0
	movf	((FetchKey@ButtonPressedTime)),w
	bcf	status, 7	;select IRP bank0
	movwf	indf
	incf	fsr0,f
	movf	((FetchKey@ButtonPressedTime+1)),w
	movwf	indf
	line	162
	
l7935:	
;keypad.c: 162: _delay((unsigned long)((1)*(20000000UL/4000.0)));
	opt asmopt_off
movlw	7
movwf	((??_FetchKey+0)+0+1),f
	movlw	125
movwf	((??_FetchKey+0)+0),f
u5247:
	decfsz	((??_FetchKey+0)+0),f
	goto	u5247
	decfsz	((??_FetchKey+0)+0+1),f
	goto	u5247
opt asmopt_on

	goto	l7937
	line	163
	
l1541:	
	line	159
	
l7937:	
	bcf	status, 5	;RP0=0, select bank0
	bcf	status, 6	;RP1=0, select bank0
	btfss	(43/8),(43)&7
	goto	u4271
	goto	u4270
u4271:
	goto	l7933
u4270:
	goto	l7939
	
l1543:	
	line	164
	
l7939:	
;keypad.c: 163: }
;keypad.c: 164: return '0';
	movlw	(030h)
	goto	l1510
	
l7941:	
	goto	l1510
	line	165
	
l1540:	
	line	167
;keypad.c: 165: }
;keypad.c: 167: while(!Row1 && !Row2 && !Row3 && !Row4);
	goto	l1544
	
l1545:	
	
l1544:	
	btfsc	(40/8),(40)&7
	goto	u4281
	goto	u4280
u4281:
	goto	l1548
u4280:
	
l7943:	
	btfsc	(41/8),(41)&7
	goto	u4291
	goto	u4290
u4291:
	goto	l1548
u4290:
	
l7945:	
	btfsc	(42/8),(42)&7
	goto	u4301
	goto	u4300
u4301:
	goto	l1548
u4300:
	
l7947:	
	btfss	(43/8),(43)&7
	goto	u4311
	goto	u4310
u4311:
	goto	l1544
u4310:
	goto	l1548
	
l1547:	
	
l1548:	
	line	168
;keypad.c: 168: Col1 = 1; Col2 = 1; Col3 = 0; Col4 = 1;
	bsf	(56/8),(56)&7
	bsf	(57/8),(57)&7
	bcf	(58/8),(58)&7
	bsf	(59/8),(59)&7
	line	169
;keypad.c: 169: if(!Row1)
	btfsc	(40/8),(40)&7
	goto	u4321
	goto	u4320
u4321:
	goto	l1549
u4320:
	goto	l7955
	line	171
	
l7949:	
;keypad.c: 170: {
;keypad.c: 171: while(!Row1)
	goto	l7955
	
l1551:	
	line	173
	
l7951:	
;keypad.c: 172: {
;keypad.c: 173: *Var1 = ++ButtonPressedTime;
	movlw	low(01h)
	addwf	(FetchKey@ButtonPressedTime),f
	skipnc
	incf	(FetchKey@ButtonPressedTime+1),f
	movlw	high(01h)
	addwf	(FetchKey@ButtonPressedTime+1),f
	movf	(FetchKey@Var1),w
	movwf	fsr0
	movf	((FetchKey@ButtonPressedTime)),w
	bcf	status, 7	;select IRP bank0
	movwf	indf
	incf	fsr0,f
	movf	((FetchKey@ButtonPressedTime+1)),w
	movwf	indf
	line	174
	
l7953:	
;keypad.c: 174: _delay((unsigned long)((1)*(20000000UL/4000.0)));
	opt asmopt_off
movlw	7
movwf	((??_FetchKey+0)+0+1),f
	movlw	125
movwf	((??_FetchKey+0)+0),f
u5257:
	decfsz	((??_FetchKey+0)+0),f
	goto	u5257
	decfsz	((??_FetchKey+0)+0+1),f
	goto	u5257
opt asmopt_on

	goto	l7955
	line	175
	
l1550:	
	line	171
	
l7955:	
	bcf	status, 5	;RP0=0, select bank0
	bcf	status, 6	;RP1=0, select bank0
	btfss	(40/8),(40)&7
	goto	u4331
	goto	u4330
u4331:
	goto	l7951
u4330:
	goto	l7957
	
l1552:	
	line	176
	
l7957:	
;keypad.c: 175: }
;keypad.c: 176: return '3';
	movlw	(033h)
	goto	l1510
	
l7959:	
	goto	l1510
	line	177
	
l1549:	
	line	178
;keypad.c: 177: }
;keypad.c: 178: if(!Row2)
	btfsc	(41/8),(41)&7
	goto	u4341
	goto	u4340
u4341:
	goto	l1553
u4340:
	goto	l7967
	line	180
	
l7961:	
;keypad.c: 179: {
;keypad.c: 180: while(!Row2)
	goto	l7967
	
l1555:	
	line	182
	
l7963:	
;keypad.c: 181: {
;keypad.c: 182: *Var1 = ++ButtonPressedTime;
	movlw	low(01h)
	addwf	(FetchKey@ButtonPressedTime),f
	skipnc
	incf	(FetchKey@ButtonPressedTime+1),f
	movlw	high(01h)
	addwf	(FetchKey@ButtonPressedTime+1),f
	movf	(FetchKey@Var1),w
	movwf	fsr0
	movf	((FetchKey@ButtonPressedTime)),w
	bcf	status, 7	;select IRP bank0
	movwf	indf
	incf	fsr0,f
	movf	((FetchKey@ButtonPressedTime+1)),w
	movwf	indf
	line	183
	
l7965:	
;keypad.c: 183: _delay((unsigned long)((1)*(20000000UL/4000.0)));
	opt asmopt_off
movlw	7
movwf	((??_FetchKey+0)+0+1),f
	movlw	125
movwf	((??_FetchKey+0)+0),f
u5267:
	decfsz	((??_FetchKey+0)+0),f
	goto	u5267
	decfsz	((??_FetchKey+0)+0+1),f
	goto	u5267
opt asmopt_on

	goto	l7967
	line	184
	
l1554:	
	line	180
	
l7967:	
	bcf	status, 5	;RP0=0, select bank0
	bcf	status, 6	;RP1=0, select bank0
	btfss	(41/8),(41)&7
	goto	u4351
	goto	u4350
u4351:
	goto	l7963
u4350:
	goto	l7969
	
l1556:	
	line	185
	
l7969:	
;keypad.c: 184: }
;keypad.c: 185: return '6';
	movlw	(036h)
	goto	l1510
	
l7971:	
	goto	l1510
	line	186
	
l1553:	
	line	187
;keypad.c: 186: }
;keypad.c: 187: if(!Row3)
	btfsc	(42/8),(42)&7
	goto	u4361
	goto	u4360
u4361:
	goto	l1557
u4360:
	goto	l7979
	line	189
	
l7973:	
;keypad.c: 188: {
;keypad.c: 189: while(!Row3)
	goto	l7979
	
l1559:	
	line	191
	
l7975:	
;keypad.c: 190: {
;keypad.c: 191: *Var1 = ++ButtonPressedTime;
	movlw	low(01h)
	addwf	(FetchKey@ButtonPressedTime),f
	skipnc
	incf	(FetchKey@ButtonPressedTime+1),f
	movlw	high(01h)
	addwf	(FetchKey@ButtonPressedTime+1),f
	movf	(FetchKey@Var1),w
	movwf	fsr0
	movf	((FetchKey@ButtonPressedTime)),w
	bcf	status, 7	;select IRP bank0
	movwf	indf
	incf	fsr0,f
	movf	((FetchKey@ButtonPressedTime+1)),w
	movwf	indf
	line	192
	
l7977:	
;keypad.c: 192: _delay((unsigned long)((1)*(20000000UL/4000.0)));
	opt asmopt_off
movlw	7
movwf	((??_FetchKey+0)+0+1),f
	movlw	125
movwf	((??_FetchKey+0)+0),f
u5277:
	decfsz	((??_FetchKey+0)+0),f
	goto	u5277
	decfsz	((??_FetchKey+0)+0+1),f
	goto	u5277
opt asmopt_on

	goto	l7979
	line	193
	
l1558:	
	line	189
	
l7979:	
	bcf	status, 5	;RP0=0, select bank0
	bcf	status, 6	;RP1=0, select bank0
	btfss	(42/8),(42)&7
	goto	u4371
	goto	u4370
u4371:
	goto	l7975
u4370:
	goto	l7981
	
l1560:	
	line	194
	
l7981:	
;keypad.c: 193: }
;keypad.c: 194: return '9';
	movlw	(039h)
	goto	l1510
	
l7983:	
	goto	l1510
	line	195
	
l1557:	
	line	196
;keypad.c: 195: }
;keypad.c: 196: if(!Row4)
	btfsc	(43/8),(43)&7
	goto	u4381
	goto	u4380
u4381:
	goto	l1565
u4380:
	goto	l7991
	line	198
	
l7985:	
;keypad.c: 197: {
;keypad.c: 198: while(!Row4)
	goto	l7991
	
l1563:	
	line	200
	
l7987:	
;keypad.c: 199: {
;keypad.c: 200: *Var1 = ++ButtonPressedTime;
	movlw	low(01h)
	addwf	(FetchKey@ButtonPressedTime),f
	skipnc
	incf	(FetchKey@ButtonPressedTime+1),f
	movlw	high(01h)
	addwf	(FetchKey@ButtonPressedTime+1),f
	movf	(FetchKey@Var1),w
	movwf	fsr0
	movf	((FetchKey@ButtonPressedTime)),w
	bcf	status, 7	;select IRP bank0
	movwf	indf
	incf	fsr0,f
	movf	((FetchKey@ButtonPressedTime+1)),w
	movwf	indf
	line	201
	
l7989:	
;keypad.c: 201: _delay((unsigned long)((1)*(20000000UL/4000.0)));
	opt asmopt_off
movlw	7
movwf	((??_FetchKey+0)+0+1),f
	movlw	125
movwf	((??_FetchKey+0)+0),f
u5287:
	decfsz	((??_FetchKey+0)+0),f
	goto	u5287
	decfsz	((??_FetchKey+0)+0+1),f
	goto	u5287
opt asmopt_on

	goto	l7991
	line	202
	
l1562:	
	line	198
	
l7991:	
	bcf	status, 5	;RP0=0, select bank0
	bcf	status, 6	;RP1=0, select bank0
	btfss	(43/8),(43)&7
	goto	u4391
	goto	u4390
u4391:
	goto	l7987
u4390:
	goto	l7993
	
l1564:	
	line	203
	
l7993:	
;keypad.c: 202: }
;keypad.c: 203: return '#';
	movlw	(023h)
	goto	l1510
	
l7995:	
	goto	l1510
	line	204
	
l1561:	
	line	206
;keypad.c: 204: }
;keypad.c: 206: while(!Row1 && !Row2 && !Row3 && !Row4);
	goto	l1565
	
l1566:	
	
l1565:	
	btfsc	(40/8),(40)&7
	goto	u4401
	goto	u4400
u4401:
	goto	l1569
u4400:
	
l7997:	
	btfsc	(41/8),(41)&7
	goto	u4411
	goto	u4410
u4411:
	goto	l1569
u4410:
	
l7999:	
	btfsc	(42/8),(42)&7
	goto	u4421
	goto	u4420
u4421:
	goto	l1569
u4420:
	
l8001:	
	btfss	(43/8),(43)&7
	goto	u4431
	goto	u4430
u4431:
	goto	l1565
u4430:
	goto	l1569
	
l1568:	
	
l1569:	
	line	207
;keypad.c: 207: Col1 = 1; Col2 = 1; Col3 = 1; Col4 = 0;
	bsf	(56/8),(56)&7
	bsf	(57/8),(57)&7
	bsf	(58/8),(58)&7
	bcf	(59/8),(59)&7
	line	208
;keypad.c: 208: if(!Row1)
	btfsc	(40/8),(40)&7
	goto	u4441
	goto	u4440
u4441:
	goto	l1570
u4440:
	goto	l8009
	line	210
	
l8003:	
;keypad.c: 209: {
;keypad.c: 210: while(!Row1)
	goto	l8009
	
l1572:	
	line	212
	
l8005:	
;keypad.c: 211: {
;keypad.c: 212: *Var1 = ++ButtonPressedTime;
	movlw	low(01h)
	addwf	(FetchKey@ButtonPressedTime),f
	skipnc
	incf	(FetchKey@ButtonPressedTime+1),f
	movlw	high(01h)
	addwf	(FetchKey@ButtonPressedTime+1),f
	movf	(FetchKey@Var1),w
	movwf	fsr0
	movf	((FetchKey@ButtonPressedTime)),w
	bcf	status, 7	;select IRP bank0
	movwf	indf
	incf	fsr0,f
	movf	((FetchKey@ButtonPressedTime+1)),w
	movwf	indf
	line	213
	
l8007:	
;keypad.c: 213: _delay((unsigned long)((1)*(20000000UL/4000.0)));
	opt asmopt_off
movlw	7
movwf	((??_FetchKey+0)+0+1),f
	movlw	125
movwf	((??_FetchKey+0)+0),f
u5297:
	decfsz	((??_FetchKey+0)+0),f
	goto	u5297
	decfsz	((??_FetchKey+0)+0+1),f
	goto	u5297
opt asmopt_on

	goto	l8009
	line	214
	
l1571:	
	line	210
	
l8009:	
	bcf	status, 5	;RP0=0, select bank0
	bcf	status, 6	;RP1=0, select bank0
	btfss	(40/8),(40)&7
	goto	u4451
	goto	u4450
u4451:
	goto	l8005
u4450:
	goto	l8011
	
l1573:	
	line	215
	
l8011:	
;keypad.c: 214: }
;keypad.c: 215: return 'A';
	movlw	(041h)
	goto	l1510
	
l8013:	
	goto	l1510
	line	216
	
l1570:	
	line	217
;keypad.c: 216: }
;keypad.c: 217: if(!Row2)
	btfsc	(41/8),(41)&7
	goto	u4461
	goto	u4460
u4461:
	goto	l1574
u4460:
	goto	l8021
	line	219
	
l8015:	
;keypad.c: 218: {
;keypad.c: 219: while(!Row2)
	goto	l8021
	
l1576:	
	line	221
	
l8017:	
;keypad.c: 220: {
;keypad.c: 221: *Var1 = ++ButtonPressedTime;
	movlw	low(01h)
	addwf	(FetchKey@ButtonPressedTime),f
	skipnc
	incf	(FetchKey@ButtonPressedTime+1),f
	movlw	high(01h)
	addwf	(FetchKey@ButtonPressedTime+1),f
	movf	(FetchKey@Var1),w
	movwf	fsr0
	movf	((FetchKey@ButtonPressedTime)),w
	bcf	status, 7	;select IRP bank0
	movwf	indf
	incf	fsr0,f
	movf	((FetchKey@ButtonPressedTime+1)),w
	movwf	indf
	line	222
	
l8019:	
;keypad.c: 222: _delay((unsigned long)((1)*(20000000UL/4000.0)));
	opt asmopt_off
movlw	7
movwf	((??_FetchKey+0)+0+1),f
	movlw	125
movwf	((??_FetchKey+0)+0),f
u5307:
	decfsz	((??_FetchKey+0)+0),f
	goto	u5307
	decfsz	((??_FetchKey+0)+0+1),f
	goto	u5307
opt asmopt_on

	goto	l8021
	line	223
	
l1575:	
	line	219
	
l8021:	
	bcf	status, 5	;RP0=0, select bank0
	bcf	status, 6	;RP1=0, select bank0
	btfss	(41/8),(41)&7
	goto	u4471
	goto	u4470
u4471:
	goto	l8017
u4470:
	goto	l8023
	
l1577:	
	line	224
	
l8023:	
;keypad.c: 223: }
;keypad.c: 224: return 'B';
	movlw	(042h)
	goto	l1510
	
l8025:	
	goto	l1510
	line	225
	
l1574:	
	line	226
;keypad.c: 225: }
;keypad.c: 226: if(!Row3)
	btfsc	(42/8),(42)&7
	goto	u4481
	goto	u4480
u4481:
	goto	l1578
u4480:
	goto	l8033
	line	228
	
l8027:	
;keypad.c: 227: {
;keypad.c: 228: while(!Row3)
	goto	l8033
	
l1580:	
	line	230
	
l8029:	
;keypad.c: 229: {
;keypad.c: 230: *Var1 = ++ButtonPressedTime;
	movlw	low(01h)
	addwf	(FetchKey@ButtonPressedTime),f
	skipnc
	incf	(FetchKey@ButtonPressedTime+1),f
	movlw	high(01h)
	addwf	(FetchKey@ButtonPressedTime+1),f
	movf	(FetchKey@Var1),w
	movwf	fsr0
	movf	((FetchKey@ButtonPressedTime)),w
	bcf	status, 7	;select IRP bank0
	movwf	indf
	incf	fsr0,f
	movf	((FetchKey@ButtonPressedTime+1)),w
	movwf	indf
	line	231
	
l8031:	
;keypad.c: 231: _delay((unsigned long)((1)*(20000000UL/4000.0)));
	opt asmopt_off
movlw	7
movwf	((??_FetchKey+0)+0+1),f
	movlw	125
movwf	((??_FetchKey+0)+0),f
u5317:
	decfsz	((??_FetchKey+0)+0),f
	goto	u5317
	decfsz	((??_FetchKey+0)+0+1),f
	goto	u5317
opt asmopt_on

	goto	l8033
	line	232
	
l1579:	
	line	228
	
l8033:	
	bcf	status, 5	;RP0=0, select bank0
	bcf	status, 6	;RP1=0, select bank0
	btfss	(42/8),(42)&7
	goto	u4491
	goto	u4490
u4491:
	goto	l8029
u4490:
	goto	l8035
	
l1581:	
	line	233
	
l8035:	
;keypad.c: 232: }
;keypad.c: 233: return 'C';
	movlw	(043h)
	goto	l1510
	
l8037:	
	goto	l1510
	line	234
	
l1578:	
	line	235
;keypad.c: 234: }
;keypad.c: 235: if(!Row4)
	btfsc	(43/8),(43)&7
	goto	u4501
	goto	u4500
u4501:
	goto	l8051
u4500:
	goto	l8045
	line	237
	
l8039:	
;keypad.c: 236: {
;keypad.c: 237: while(!Row4)
	goto	l8045
	
l1584:	
	line	239
	
l8041:	
;keypad.c: 238: {
;keypad.c: 239: *Var1 = ++ButtonPressedTime;
	movlw	low(01h)
	addwf	(FetchKey@ButtonPressedTime),f
	skipnc
	incf	(FetchKey@ButtonPressedTime+1),f
	movlw	high(01h)
	addwf	(FetchKey@ButtonPressedTime+1),f
	movf	(FetchKey@Var1),w
	movwf	fsr0
	movf	((FetchKey@ButtonPressedTime)),w
	bcf	status, 7	;select IRP bank0
	movwf	indf
	incf	fsr0,f
	movf	((FetchKey@ButtonPressedTime+1)),w
	movwf	indf
	line	240
	
l8043:	
;keypad.c: 240: _delay((unsigned long)((1)*(20000000UL/4000.0)));
	opt asmopt_off
movlw	7
movwf	((??_FetchKey+0)+0+1),f
	movlw	125
movwf	((??_FetchKey+0)+0),f
u5327:
	decfsz	((??_FetchKey+0)+0),f
	goto	u5327
	decfsz	((??_FetchKey+0)+0+1),f
	goto	u5327
opt asmopt_on

	goto	l8045
	line	241
	
l1583:	
	line	237
	
l8045:	
	bcf	status, 5	;RP0=0, select bank0
	bcf	status, 6	;RP1=0, select bank0
	btfss	(43/8),(43)&7
	goto	u4511
	goto	u4510
u4511:
	goto	l8041
u4510:
	goto	l8047
	
l1585:	
	line	242
	
l8047:	
;keypad.c: 241: }
;keypad.c: 242: return 'D';
	movlw	(044h)
	goto	l1510
	
l8049:	
	goto	l1510
	line	243
	
l1582:	
	line	244
	
l8051:	
;keypad.c: 243: }
;keypad.c: 244: return '\0';
	movlw	(0)
	goto	l1510
	
l8053:	
	line	246
	
l1510:	
	return
	opt stack 0
GLOBAL	__end_of_FetchKey
	__end_of_FetchKey:
;; =============== function _FetchKey ends ============

	signat	_FetchKey,4217
	global	___wmul
psect	text425,local,class=CODE,delta=2
global __ptext425
__ptext425:

;; *************** function ___wmul *****************
;; Defined at:
;;		line 3 in file "C:\Program Files (x86)\HI-TECH Software\PICC\9.82\sources\wmul.c"
;; Parameters:    Size  Location     Type
;;  multiplier      2    0[COMMON] unsigned int 
;;  multiplicand    2    2[COMMON] unsigned int 
;; Auto vars:     Size  Location     Type
;;  product         2    4[COMMON] unsigned int 
;; Return value:  Size  Location     Type
;;                  2    0[COMMON] unsigned int 
;; Registers used:
;;		wreg, status,2, status,0
;; Tracked objects:
;;		On entry : 0/0
;;		On exit  : 0/0
;;		Unchanged: 0/0
;; Data sizes:     COMMON   BANK0   BANK1   BANK3   BANK2
;;      Params:         4       0       0       0       0
;;      Locals:         2       0       0       0       0
;;      Temps:          0       0       0       0       0
;;      Totals:         6       0       0       0       0
;;Total ram usage:        6 bytes
;; Hardware stack levels used:    1
;; This function calls:
;;		Nothing
;; This function is called by:
;;		_atoi
;; This function uses a non-reentrant model
;;
psect	text425
	file	"C:\Program Files (x86)\HI-TECH Software\PICC\9.82\sources\wmul.c"
	line	3
	global	__size_of___wmul
	__size_of___wmul	equ	__end_of___wmul-___wmul
	
___wmul:	
	opt	stack 5
; Regs used in ___wmul: [wreg+status,2+status,0]
	line	4
	
l7821:	
	clrf	(___wmul@product)
	clrf	(___wmul@product+1)
	goto	l7823
	line	6
	
l5096:	
	line	7
	
l7823:	
	btfss	(___wmul@multiplier),(0)&7
	goto	u4001
	goto	u4000
u4001:
	goto	l5097
u4000:
	line	8
	
l7825:	
	movf	(___wmul@multiplicand),w
	addwf	(___wmul@product),f
	skipnc
	incf	(___wmul@product+1),f
	movf	(___wmul@multiplicand+1),w
	addwf	(___wmul@product+1),f
	
l5097:	
	line	9
	movlw	01h
	
u4015:
	clrc
	rlf	(___wmul@multiplicand),f
	rlf	(___wmul@multiplicand+1),f
	addlw	-1
	skipz
	goto	u4015
	line	10
	
l7827:	
	movlw	01h
	
u4025:
	clrc
	rrf	(___wmul@multiplier+1),f
	rrf	(___wmul@multiplier),f
	addlw	-1
	skipz
	goto	u4025
	line	11
	movf	((___wmul@multiplier+1)),w
	iorwf	((___wmul@multiplier)),w
	skipz
	goto	u4031
	goto	u4030
u4031:
	goto	l7823
u4030:
	goto	l7829
	
l5098:	
	line	12
	
l7829:	
	movf	(___wmul@product+1),w
	clrf	(?___wmul+1)
	addwf	(?___wmul+1)
	movf	(___wmul@product),w
	clrf	(?___wmul)
	addwf	(?___wmul)

	goto	l5099
	
l7831:	
	line	13
	
l5099:	
	return
	opt stack 0
GLOBAL	__end_of___wmul
	__end_of___wmul:
;; =============== function ___wmul ends ============

	signat	___wmul,8314
	global	_eeprom_write
psect	text426,local,class=CODE,delta=2
global __ptext426
__ptext426:

;; *************** function _eeprom_write *****************
;; Defined at:
;;		line 7 in file "C:\Program Files (x86)\HI-TECH Software\PICC\9.82\sources\eewrite.c"
;; Parameters:    Size  Location     Type
;;  addr            1    wreg     unsigned char 
;;  value           1    0[COMMON] unsigned char 
;; Auto vars:     Size  Location     Type
;;  addr            1    2[COMMON] unsigned char 
;; Return value:  Size  Location     Type
;;                  1    wreg      unsigned char 
;; Registers used:
;;		wreg, status,2, status,0
;; Tracked objects:
;;		On entry : 0/0
;;		On exit  : 0/0
;;		Unchanged: 0/0
;; Data sizes:     COMMON   BANK0   BANK1   BANK3   BANK2
;;      Params:         1       0       0       0       0
;;      Locals:         1       0       0       0       0
;;      Temps:          1       0       0       0       0
;;      Totals:         3       0       0       0       0
;;Total ram usage:        3 bytes
;; Hardware stack levels used:    1
;; This function calls:
;;		Nothing
;; This function is called by:
;;		_ChangePassWord
;; This function uses a non-reentrant model
;;
psect	text426
	file	"C:\Program Files (x86)\HI-TECH Software\PICC\9.82\sources\eewrite.c"
	line	7
	global	__size_of_eeprom_write
	__size_of_eeprom_write	equ	__end_of_eeprom_write-_eeprom_write
	
_eeprom_write:	
	opt	stack 6
; Regs used in _eeprom_write: [wreg+status,2+status,0]
;eeprom_write@addr stored from wreg
	movwf	(eeprom_write@addr)
	line	8
	
l4346:	
	goto	l4347
	
l4348:	
	
l4347:	
	bsf	status, 5	;RP0=1, select bank3
	bsf	status, 6	;RP1=1, select bank3
	btfsc	(3169/8)^0180h,(3169)&7
	goto	u3971
	goto	u3970
u3971:
	goto	l4347
u3970:
	goto	l7801
	
l4349:	
	
l7801:	
	movf	(eeprom_write@addr),w
	bcf	status, 5	;RP0=0, select bank2
	bsf	status, 6	;RP1=1, select bank2
	movwf	(269)^0100h	;volatile
	movf	(eeprom_write@value),w
	movwf	(268)^0100h	;volatile
	
l7803:	
	movlw	(03Fh)
	movwf	(??_eeprom_write+0)+0
	movf	(??_eeprom_write+0)+0,w
	bsf	status, 5	;RP0=1, select bank3
	bsf	status, 6	;RP1=1, select bank3
	andwf	(396)^0180h,f	;volatile
	
l7805:	
	bcf	status, 5	;RP0=0, select bank0
	bcf	status, 6	;RP1=0, select bank0
	bcf	(24/8),(24)&7
	
l7807:	
	btfss	(95/8),(95)&7
	goto	u3981
	goto	u3980
u3981:
	goto	l4350
u3980:
	
l7809:	
	bsf	(24/8),(24)&7
	
l4350:	
	bcf	(95/8),(95)&7
	bsf	status, 5	;RP0=1, select bank3
	bsf	status, 6	;RP1=1, select bank3
	bsf	(3170/8)^0180h,(3170)&7
	
l7811:	
	movlw	(055h)
	movwf	(397)^0180h	;volatile
	movlw	(0AAh)
	movwf	(397)^0180h	;volatile
	
l7813:	
	bsf	(3169/8)^0180h,(3169)&7
	
l7815:	
	bcf	(3170/8)^0180h,(3170)&7
	
l7817:	
	bcf	status, 5	;RP0=0, select bank0
	bcf	status, 6	;RP1=0, select bank0
	btfss	(24/8),(24)&7
	goto	u3991
	goto	u3990
u3991:
	goto	l4353
u3990:
	
l7819:	
	bsf	(95/8),(95)&7
	goto	l4353
	
l4351:	
	goto	l4353
	
l4352:	
	line	10
;	Return value of _eeprom_write is never used
	
l4353:	
	return
	opt stack 0
GLOBAL	__end_of_eeprom_write
	__end_of_eeprom_write:
;; =============== function _eeprom_write ends ============

	signat	_eeprom_write,8313
	global	_eeprom_read
psect	text427,local,class=CODE,delta=2
global __ptext427
__ptext427:

;; *************** function _eeprom_read *****************
;; Defined at:
;;		line 7 in file "eeread.c"
;; Parameters:    Size  Location     Type
;;  addr            1    wreg     unsigned char 
;; Auto vars:     Size  Location     Type
;;  addr            1    1[COMMON] unsigned char 
;; Return value:  Size  Location     Type
;;                  1    wreg      unsigned char 
;; Registers used:
;;		wreg, status,2, status,0
;; Tracked objects:
;;		On entry : 0/0
;;		On exit  : 0/0
;;		Unchanged: 0/0
;; Data sizes:     COMMON   BANK0   BANK1   BANK3   BANK2
;;      Params:         0       0       0       0       0
;;      Locals:         1       0       0       0       0
;;      Temps:          1       0       0       0       0
;;      Totals:         2       0       0       0       0
;;Total ram usage:        2 bytes
;; Hardware stack levels used:    1
;; This function calls:
;;		Nothing
;; This function is called by:
;;		_main
;; This function uses a non-reentrant model
;;
psect	text427
	file	"C:\Program Files (x86)\HI-TECH Software\PICC\9.82\sources\eeread.c"
	line	7
	global	__size_of_eeprom_read
	__size_of_eeprom_read	equ	__end_of_eeprom_read-_eeprom_read
	
_eeprom_read:	
	opt	stack 7
; Regs used in _eeprom_read: [wreg+status,2+status,0]
;eeprom_read@addr stored from wreg
	line	9
	movwf	(eeprom_read@addr)
	line	8
	
l3729:	
	line	9
# 9 "C:\Program Files (x86)\HI-TECH Software\PICC\9.82\sources\eeread.c"
clrwdt ;#
psect	text427
	line	10
	bsf	status, 5	;RP0=1, select bank3
	bsf	status, 6	;RP1=1, select bank3
	btfsc	(3169/8)^0180h,(3169)&7
	goto	u3961
	goto	u3960
u3961:
	goto	l3729
u3960:
	goto	l7797
	
l3730:	
	line	11
	
l7797:	
	movf	(eeprom_read@addr),w
	bcf	status, 5	;RP0=0, select bank2
	bsf	status, 6	;RP1=1, select bank2
	movwf	(269)^0100h	;volatile
	movlw	(03Fh)
	movwf	(??_eeprom_read+0)+0
	movf	(??_eeprom_read+0)+0,w
	bsf	status, 5	;RP0=1, select bank3
	bsf	status, 6	;RP1=1, select bank3
	andwf	(396)^0180h,f	;volatile
	bsf	(3168/8)^0180h,(3168)&7
	clrc
	btfsc	(3168/8)^0180h,(3168)&7
	setc
	movlw	0
	skipnc
	movlw	1

	bcf	status, 5	;RP0=0, select bank2
	bsf	status, 6	;RP1=1, select bank2
	movf	(268)^0100h,w	;volatile
	goto	l3731
	
l7799:	
	line	12
	
l3731:	
	return
	opt stack 0
GLOBAL	__end_of_eeprom_read
	__end_of_eeprom_read:
;; =============== function _eeprom_read ends ============

	signat	_eeprom_read,4217
	global	_LCD_Allort
psect	text428,local,class=CODE,delta=2
global __ptext428
__ptext428:

;; *************** function _LCD_Allort *****************
;; Defined at:
;;		line 75 in file "D:\pic controller,PIC16F877A\Password Based Circuit Breaker\lcd.c"
;; Parameters:    Size  Location     Type
;;  Data            1    wreg     unsigned char 
;; Auto vars:     Size  Location     Type
;;  Data            1    1[COMMON] unsigned char 
;; Return value:  Size  Location     Type
;;		None               void
;; Registers used:
;;		wreg, status,2, status,0
;; Tracked objects:
;;		On entry : 0/0
;;		On exit  : 0/0
;;		Unchanged: 0/0
;; Data sizes:     COMMON   BANK0   BANK1   BANK3   BANK2
;;      Params:         0       0       0       0       0
;;      Locals:         1       0       0       0       0
;;      Temps:          1       0       0       0       0
;;      Totals:         2       0       0       0       0
;;Total ram usage:        2 bytes
;; Hardware stack levels used:    1
;; This function calls:
;;		Nothing
;; This function is called by:
;;		_LCD_Command
;;		_LCD_Write
;; This function uses a non-reentrant model
;;
psect	text428
	file	"D:\pic controller,PIC16F877A\Password Based Circuit Breaker\lcd.c"
	line	75
	global	__size_of_LCD_Allort
	__size_of_LCD_Allort	equ	__end_of_LCD_Allort-_LCD_Allort
	
_LCD_Allort:	
	opt	stack 6
; Regs used in _LCD_Allort: [wreg+status,2+status,0]
;LCD_Allort@Data stored from wreg
	movwf	(LCD_Allort@Data)
	line	76
	
l7765:	
;lcd.c: 76: if(Data & 0x10) PORTB |= (1 << 3);
	btfss	(LCD_Allort@Data),(4)&7
	goto	u3921
	goto	u3920
u3921:
	goto	l7769
u3920:
	
l7767:	
	bcf	status, 5	;RP0=0, select bank0
	bcf	status, 6	;RP1=0, select bank0
	bsf	(6)+(3/8),(3)&7	;volatile
	goto	l7771
	line	77
	
l2317:	
	
l7769:	
;lcd.c: 77: else PORTB &=~ (1 << 3);
	movlw	(0F7h)
	movwf	(??_LCD_Allort+0)+0
	movf	(??_LCD_Allort+0)+0,w
	bcf	status, 5	;RP0=0, select bank0
	bcf	status, 6	;RP1=0, select bank0
	andwf	(6),f	;volatile
	goto	l7771
	
l2318:	
	line	78
	
l7771:	
;lcd.c: 78: if(Data & 0x20) PORTB |= (1 << 2);
	btfss	(LCD_Allort@Data),(5)&7
	goto	u3931
	goto	u3930
u3931:
	goto	l7775
u3930:
	
l7773:	
	bsf	(6)+(2/8),(2)&7	;volatile
	goto	l7777
	line	79
	
l2319:	
	
l7775:	
;lcd.c: 79: else PORTB &=~ (1 << 2);
	movlw	(0FBh)
	movwf	(??_LCD_Allort+0)+0
	movf	(??_LCD_Allort+0)+0,w
	andwf	(6),f	;volatile
	goto	l7777
	
l2320:	
	line	80
	
l7777:	
;lcd.c: 80: if(Data & 0x40) PORTB |= (1 << 1);
	btfss	(LCD_Allort@Data),(6)&7
	goto	u3941
	goto	u3940
u3941:
	goto	l7781
u3940:
	
l7779:	
	bsf	(6)+(1/8),(1)&7	;volatile
	goto	l7783
	line	81
	
l2321:	
	
l7781:	
;lcd.c: 81: else PORTB &=~ (1 << 1);
	movlw	(0FDh)
	movwf	(??_LCD_Allort+0)+0
	movf	(??_LCD_Allort+0)+0,w
	andwf	(6),f	;volatile
	goto	l7783
	
l2322:	
	line	82
	
l7783:	
;lcd.c: 82: if(Data & 0x80) PORTB |= (1 << 0);
	btfss	(LCD_Allort@Data),(7)&7
	goto	u3951
	goto	u3950
u3951:
	goto	l7787
u3950:
	
l7785:	
	bsf	(6)+(0/8),(0)&7	;volatile
	goto	l2325
	line	83
	
l2323:	
	
l7787:	
;lcd.c: 83: else PORTB &=~ (1 << 0);
	movlw	(0FEh)
	movwf	(??_LCD_Allort+0)+0
	movf	(??_LCD_Allort+0)+0,w
	andwf	(6),f	;volatile
	goto	l2325
	
l2324:	
	line	84
	
l2325:	
	return
	opt stack 0
GLOBAL	__end_of_LCD_Allort
	__end_of_LCD_Allort:
;; =============== function _LCD_Allort ends ============

	signat	_LCD_Allort,4216
	global	_memset
psect	text429,local,class=CODE,delta=2
global __ptext429
__ptext429:

;; *************** function _memset *****************
;; Defined at:
;;		line 10 in file "C:\Program Files (x86)\HI-TECH Software\PICC\9.82\sources\memset.c"
;; Parameters:    Size  Location     Type
;;  p1              1    wreg     PTR void 
;;		 -> LocalArray(5), RTC_Keypad@LocalArray(4), 
;;  c               2    0[COMMON] int 
;;  n               2    2[COMMON] unsigned int 
;; Auto vars:     Size  Location     Type
;;  p1              1    5[COMMON] PTR void 
;;		 -> LocalArray(5), RTC_Keypad@LocalArray(4), 
;;  p               1    6[COMMON] PTR unsigned char 
;;		 -> LocalArray(5), RTC_Keypad@LocalArray(4), 
;; Return value:  Size  Location     Type
;;                  1    wreg      PTR void 
;; Registers used:
;;		wreg, fsr0l, fsr0h, status,2, status,0
;; Tracked objects:
;;		On entry : 0/0
;;		On exit  : 0/0
;;		Unchanged: 0/0
;; Data sizes:     COMMON   BANK0   BANK1   BANK3   BANK2
;;      Params:         4       0       0       0       0
;;      Locals:         2       0       0       0       0
;;      Temps:          1       0       0       0       0
;;      Totals:         7       0       0       0       0
;;Total ram usage:        7 bytes
;; Hardware stack levels used:    1
;; This function calls:
;;		Nothing
;; This function is called by:
;;		_main
;;		_ChangePassWord
;;		_Keypad
;; This function uses a non-reentrant model
;;
psect	text429
	file	"C:\Program Files (x86)\HI-TECH Software\PICC\9.82\sources\memset.c"
	line	10
	global	__size_of_memset
	__size_of_memset	equ	__end_of_memset-_memset
	
_memset:	
	opt	stack 6
; Regs used in _memset: [wreg-fsr0h+status,2+status,0]
;memset@p1 stored from wreg
	line	18
	movwf	(memset@p1)
	
l7723:	
	movf	(memset@p1),w
	movwf	(??_memset+0)+0
	movf	(??_memset+0)+0,w
	movwf	(memset@p)
	line	19
	goto	l7729
	
l5058:	
	line	20
	
l7725:	
	movf	(memset@c),w
	movwf	(??_memset+0)+0
	movf	(memset@p),w
	movwf	fsr0
	movf	(??_memset+0)+0,w
	bcf	status, 7	;select IRP bank0
	movwf	indf
	
l7727:	
	movlw	(01h)
	movwf	(??_memset+0)+0
	movf	(??_memset+0)+0,w
	addwf	(memset@p),f
	goto	l7729
	
l5057:	
	line	19
	
l7729:	
	movlw	low(01h)
	subwf	(memset@n),f
	movlw	high(01h)
	skipc
	decf	(memset@n+1),f
	subwf	(memset@n+1),f
	movlw	high(0FFFFh)
	xorwf	((memset@n+1)),w
	skipz
	goto	u3915
	movlw	low(0FFFFh)
	xorwf	((memset@n)),w
u3915:

	skipz
	goto	u3911
	goto	u3910
u3911:
	goto	l7725
u3910:
	goto	l5060
	
l5059:	
	line	22
;	Return value of _memset is never used
	
l5060:	
	return
	opt stack 0
GLOBAL	__end_of_memset
	__end_of_memset:
;; =============== function _memset ends ============

	signat	_memset,12409
	global	_Keypad_Initialize
psect	text430,local,class=CODE,delta=2
global __ptext430
__ptext430:

;; *************** function _Keypad_Initialize *****************
;; Defined at:
;;		line 17 in file "D:\pic controller,PIC16F877A\Password Based Circuit Breaker\keypad.c"
;; Parameters:    Size  Location     Type
;;		None
;; Auto vars:     Size  Location     Type
;;		None
;; Return value:  Size  Location     Type
;;		None               void
;; Registers used:
;;		wreg, status,2, status,0
;; Tracked objects:
;;		On entry : 0/0
;;		On exit  : 0/0
;;		Unchanged: 0/0
;; Data sizes:     COMMON   BANK0   BANK1   BANK3   BANK2
;;      Params:         0       0       0       0       0
;;      Locals:         0       0       0       0       0
;;      Temps:          1       0       0       0       0
;;      Totals:         1       0       0       0       0
;;Total ram usage:        1 bytes
;; Hardware stack levels used:    1
;; This function calls:
;;		Nothing
;; This function is called by:
;;		_main
;; This function uses a non-reentrant model
;;
psect	text430
	file	"D:\pic controller,PIC16F877A\Password Based Circuit Breaker\keypad.c"
	line	17
	global	__size_of_Keypad_Initialize
	__size_of_Keypad_Initialize	equ	__end_of_Keypad_Initialize-_Keypad_Initialize
	
_Keypad_Initialize:	
	opt	stack 7
; Regs used in _Keypad_Initialize: [wreg+status,2+status,0]
	line	27
	
l7667:	
;keypad.c: 27: TRISC &=~ (1 << 0);
	movlw	(0FEh)
	movwf	(??_Keypad_Initialize+0)+0
	movf	(??_Keypad_Initialize+0)+0,w
	bsf	status, 5	;RP0=1, select bank1
	bcf	status, 6	;RP1=0, select bank1
	andwf	(135)^080h,f	;volatile
	line	28
;keypad.c: 28: TRISC &=~ (1 << 1);
	movlw	(0FDh)
	movwf	(??_Keypad_Initialize+0)+0
	movf	(??_Keypad_Initialize+0)+0,w
	andwf	(135)^080h,f	;volatile
	line	29
;keypad.c: 29: TRISC &=~ (1 << 2);
	movlw	(0FBh)
	movwf	(??_Keypad_Initialize+0)+0
	movf	(??_Keypad_Initialize+0)+0,w
	andwf	(135)^080h,f	;volatile
	line	30
;keypad.c: 30: TRISC &=~ (1 << 3);
	movlw	(0F7h)
	movwf	(??_Keypad_Initialize+0)+0
	movf	(??_Keypad_Initialize+0)+0,w
	andwf	(135)^080h,f	;volatile
	line	31
	
l7669:	
;keypad.c: 31: TRISA |= (1 << 0);
	bsf	(133)^080h+(0/8),(0)&7	;volatile
	line	32
	
l7671:	
;keypad.c: 32: TRISA |= (1 << 1);
	bsf	(133)^080h+(1/8),(1)&7	;volatile
	line	33
	
l7673:	
;keypad.c: 33: TRISA |= (1 << 2);
	bsf	(133)^080h+(2/8),(2)&7	;volatile
	line	34
	
l7675:	
;keypad.c: 34: TRISA |= (1 << 3);
	bsf	(133)^080h+(3/8),(3)&7	;volatile
	line	36
	
l1498:	
	return
	opt stack 0
GLOBAL	__end_of_Keypad_Initialize
	__end_of_Keypad_Initialize:
;; =============== function _Keypad_Initialize ends ============

	signat	_Keypad_Initialize,88
	global	_isdigit
psect	text431,local,class=CODE,delta=2
global __ptext431
__ptext431:

;; *************** function _isdigit *****************
;; Defined at:
;;		line 13 in file "C:\Program Files (x86)\HI-TECH Software\PICC\9.82\sources\isdigit.c"
;; Parameters:    Size  Location     Type
;;  c               1    wreg     unsigned char 
;; Auto vars:     Size  Location     Type
;;  c               1    1[COMMON] unsigned char 
;; Return value:  Size  Location     Type
;;		None               void
;; Registers used:
;;		wreg, status,2, status,0
;; Tracked objects:
;;		On entry : 0/0
;;		On exit  : 0/0
;;		Unchanged: 0/0
;; Data sizes:     COMMON   BANK0   BANK1   BANK3   BANK2
;;      Params:         0       0       0       0       0
;;      Locals:         2       0       0       0       0
;;      Temps:          0       0       0       0       0
;;      Totals:         2       0       0       0       0
;;Total ram usage:        2 bytes
;; Hardware stack levels used:    1
;; This function calls:
;;		Nothing
;; This function is called by:
;;		_main
;;		_ChangePassWord
;;		_atoi
;;		_SplitString
;;		_Keypad
;; This function uses a non-reentrant model
;;
psect	text431
	file	"C:\Program Files (x86)\HI-TECH Software\PICC\9.82\sources\isdigit.c"
	line	13
	global	__size_of_isdigit
	__size_of_isdigit	equ	__end_of_isdigit-_isdigit
	
_isdigit:	
	opt	stack 7
; Regs used in _isdigit: [wreg+status,2+status,0]
;isdigit@c stored from wreg
	movwf	(isdigit@c)
	line	14
	
l7655:	
	clrf	(_isdigit$4926)
	
l7657:	
	movlw	(03Ah)
	subwf	(isdigit@c),w
	skipnc
	goto	u3801
	goto	u3800
u3801:
	goto	l7663
u3800:
	
l7659:	
	movlw	(030h)
	subwf	(isdigit@c),w
	skipc
	goto	u3811
	goto	u3810
u3811:
	goto	l7663
u3810:
	
l7661:	
	clrf	(_isdigit$4926)
	bsf	status,0
	rlf	(_isdigit$4926),f
	goto	l7663
	
l5046:	
	
l7663:	
	rrf	(_isdigit$4926),w
	
	goto	l5047
	
l7665:	
	line	15
	
l5047:	
	return
	opt stack 0
GLOBAL	__end_of_isdigit
	__end_of_isdigit:
;; =============== function _isdigit ends ============

	signat	_isdigit,4216
psect	text432,local,class=CODE,delta=2
global __ptext432
__ptext432:
	global	btemp
	btemp set 07Eh

	DABS	1,126,2	;btemp
	global	wtemp0
	wtemp0 set btemp
	end
